

Microchip MPLAB XC8 Assembler V2.10 build 88905656 
                                                                                               Sat Apr 18 23:52:17 2020

Microchip MPLAB XC8 C Compiler v2.10 (Free license) build 20190730164152 Og1 
     1                           	processor	16F1518
     2                           	opt	pw 120
     3                           	opt	flic
     4                           	psect	cinit,global,class=CODE,merge=1,delta=2
     5                           	psect	bssBANK0,global,class=BANK0,space=1,delta=1
     6                           	psect	cstackCOMMON,global,class=COMMON,space=1,delta=1
     7                           	psect	cstackBANK0,global,class=BANK0,space=1,delta=1
     8                           	psect	maintext,global,class=CODE,merge=1,split=1,delta=2
     9                           	psect	text1,local,class=CODE,merge=1,delta=2
    10                           	psect	text2,local,class=CODE,merge=1,delta=2
    11                           	psect	text3,local,class=CODE,merge=1,delta=2,group=1
    12                           	psect	text4,local,class=CODE,merge=1,delta=2,group=1
    13                           	psect	text5,local,class=CODE,merge=1,delta=2,group=1
    14                           	psect	text6,local,class=CODE,merge=1,delta=2,group=1
    15                           	psect	text7,local,class=CODE,merge=1,delta=2,group=1
    16                           	psect	text8,local,class=CODE,merge=1,delta=2,group=1
    17                           	psect	text9,local,class=CODE,merge=1,delta=2,group=1
    18                           	psect	text10,local,class=CODE,merge=1,delta=2
    19                           	psect	text11,local,class=CODE,merge=1,delta=2
    20                           	psect	text12,local,class=CODE,merge=1,delta=2
    21                           	psect	text13,local,class=CODE,merge=1,delta=2
    22                           	psect	text14,local,class=CODE,merge=1,delta=2
    23                           	psect	text15,local,class=CODE,merge=1,delta=2
    24                           	dabs	1,0x7E,2
    25  0000                     
    26                           ; Version 2.10
    27                           ; Generated 31/07/2019 GMT
    28                           ; 
    29                           ; Copyright © 2019, Microchip Technology Inc. and its subsidiaries ("Microchip")
    30                           ; All rights reserved.
    31                           ; 
    32                           ; This software is developed by Microchip Technology Inc. and its subsidiaries ("Microch
      +                          ip").
    33                           ; 
    34                           ; Redistribution and use in source and binary forms, with or without modification, are
    35                           ; permitted provided that the following conditions are met:
    36                           ; 
    37                           ;     1. Redistributions of source code must retain the above copyright notice, this lis
      +                          t of
    38                           ;        conditions and the following disclaimer.
    39                           ; 
    40                           ;     2. Redistributions in binary form must reproduce the above copyright notice, this 
      +                          list
    41                           ;        of conditions and the following disclaimer in the documentation and/or other
    42                           ;        materials provided with the distribution.
    43                           ; 
    44                           ;     3. Microchip's name may not be used to endorse or promote products derived from th
      +                          is
    45                           ;        software without specific prior written permission.
    46                           ; 
    47                           ; THIS SOFTWARE IS PROVIDED BY MICROCHIP "AS IS" AND ANY EXPRESS OR IMPLIED WARRANTIES,
    48                           ; INCLUDING, BUT NOT LIMITED TO, THE IMPLIED WARRANTIES OF MERCHANTABILITY AND FITNESS F
      +                          OR
    49                           ; PURPOSE ARE DISCLAIMED.  IN NO EVENT SHALL MICROCHIP BE LIABLE FOR ANY DIRECT, INDIREC
      +                          T,
    50                           ; INCIDENTAL, SPECIAL, EXEMPLARY, OR CONSEQUENTIAL DAMAGES (INCLUDING BUT NOT LIMITED TO
    51                           ; PROCUREMENT OF SUBSTITUTE GOODS OR SERVICES; LOSS OF USE, DATA OR PROFITS; OR BUSINESS
    52                           ; INTERRUPTION) HOWSOEVER CAUSED AND ON ANY THEORY OF LIABILITY, WHETHER IN CONTRACT, ST
      +                          RICT
    53                           ; LIABILITY, OR TORT (INCLUDING NEGLIGENCE OR OTHERWISE) ARISING IN ANY WAY OUT OF THE U
      +                          SE OF
    54                           ; THIS SOFTWARE, EVEN IF ADVISED OF THE POSSIBILITY OF SUCH DAMAGE.
    55                           ; 
    56                           ; 
    57                           ; Code-generator required, PIC16F1518 Definitions
    58                           ; 
    59                           ; SFR Addresses
    60  0000                     	;# 
    61  0001                     	;# 
    62  0002                     	;# 
    63  0003                     	;# 
    64  0004                     	;# 
    65  0005                     	;# 
    66  0006                     	;# 
    67  0007                     	;# 
    68  0008                     	;# 
    69  0009                     	;# 
    70  000A                     	;# 
    71  000B                     	;# 
    72  000C                     	;# 
    73  000D                     	;# 
    74  000E                     	;# 
    75  0010                     	;# 
    76  0011                     	;# 
    77  0012                     	;# 
    78  0015                     	;# 
    79  0016                     	;# 
    80  0016                     	;# 
    81  0017                     	;# 
    82  0018                     	;# 
    83  0019                     	;# 
    84  001A                     	;# 
    85  001B                     	;# 
    86  001C                     	;# 
    87  008C                     	;# 
    88  008D                     	;# 
    89  008E                     	;# 
    90  0090                     	;# 
    91  0091                     	;# 
    92  0092                     	;# 
    93  0095                     	;# 
    94  0096                     	;# 
    95  0097                     	;# 
    96  0099                     	;# 
    97  009A                     	;# 
    98  009B                     	;# 
    99  009B                     	;# 
   100  009C                     	;# 
   101  009D                     	;# 
   102  009E                     	;# 
   103  010C                     	;# 
   104  010D                     	;# 
   105  010E                     	;# 
   106  0116                     	;# 
   107  0117                     	;# 
   108  011D                     	;# 
   109  018C                     	;# 
   110  018D                     	;# 
   111  018E                     	;# 
   112  0191                     	;# 
   113  0191                     	;# 
   114  0192                     	;# 
   115  0193                     	;# 
   116  0193                     	;# 
   117  0194                     	;# 
   118  0195                     	;# 
   119  0196                     	;# 
   120  0197                     	;# 
   121  0199                     	;# 
   122  019A                     	;# 
   123  019B                     	;# 
   124  019B                     	;# 
   125  019B                     	;# 
   126  019B                     	;# 
   127  019C                     	;# 
   128  019C                     	;# 
   129  019D                     	;# 
   130  019E                     	;# 
   131  019F                     	;# 
   132  020D                     	;# 
   133  0210                     	;# 
   134  0211                     	;# 
   135  0211                     	;# 
   136  0212                     	;# 
   137  0212                     	;# 
   138  0213                     	;# 
   139  0213                     	;# 
   140  0214                     	;# 
   141  0214                     	;# 
   142  0215                     	;# 
   143  0215                     	;# 
   144  0215                     	;# 
   145  0216                     	;# 
   146  0216                     	;# 
   147  0217                     	;# 
   148  0217                     	;# 
   149  0291                     	;# 
   150  0291                     	;# 
   151  0292                     	;# 
   152  0293                     	;# 
   153  0298                     	;# 
   154  0298                     	;# 
   155  0299                     	;# 
   156  029A                     	;# 
   157  0394                     	;# 
   158  0395                     	;# 
   159  0396                     	;# 
   160  0FE4                     	;# 
   161  0FE5                     	;# 
   162  0FE6                     	;# 
   163  0FE7                     	;# 
   164  0FE8                     	;# 
   165  0FE9                     	;# 
   166  0FEA                     	;# 
   167  0FEB                     	;# 
   168  0FED                     	;# 
   169  0FEE                     	;# 
   170  0FEF                     	;# 
   171  0000                     	;# 
   172  0001                     	;# 
   173  0002                     	;# 
   174  0003                     	;# 
   175  0004                     	;# 
   176  0005                     	;# 
   177  0006                     	;# 
   178  0007                     	;# 
   179  0008                     	;# 
   180  0009                     	;# 
   181  000A                     	;# 
   182  000B                     	;# 
   183  000C                     	;# 
   184  000D                     	;# 
   185  000E                     	;# 
   186  0010                     	;# 
   187  0011                     	;# 
   188  0012                     	;# 
   189  0015                     	;# 
   190  0016                     	;# 
   191  0016                     	;# 
   192  0017                     	;# 
   193  0018                     	;# 
   194  0019                     	;# 
   195  001A                     	;# 
   196  001B                     	;# 
   197  001C                     	;# 
   198  008C                     	;# 
   199  008D                     	;# 
   200  008E                     	;# 
   201  0090                     	;# 
   202  0091                     	;# 
   203  0092                     	;# 
   204  0095                     	;# 
   205  0096                     	;# 
   206  0097                     	;# 
   207  0099                     	;# 
   208  009A                     	;# 
   209  009B                     	;# 
   210  009B                     	;# 
   211  009C                     	;# 
   212  009D                     	;# 
   213  009E                     	;# 
   214  010C                     	;# 
   215  010D                     	;# 
   216  010E                     	;# 
   217  0116                     	;# 
   218  0117                     	;# 
   219  011D                     	;# 
   220  018C                     	;# 
   221  018D                     	;# 
   222  018E                     	;# 
   223  0191                     	;# 
   224  0191                     	;# 
   225  0192                     	;# 
   226  0193                     	;# 
   227  0193                     	;# 
   228  0194                     	;# 
   229  0195                     	;# 
   230  0196                     	;# 
   231  0197                     	;# 
   232  0199                     	;# 
   233  019A                     	;# 
   234  019B                     	;# 
   235  019B                     	;# 
   236  019B                     	;# 
   237  019B                     	;# 
   238  019C                     	;# 
   239  019C                     	;# 
   240  019D                     	;# 
   241  019E                     	;# 
   242  019F                     	;# 
   243  020D                     	;# 
   244  0210                     	;# 
   245  0211                     	;# 
   246  0211                     	;# 
   247  0212                     	;# 
   248  0212                     	;# 
   249  0213                     	;# 
   250  0213                     	;# 
   251  0214                     	;# 
   252  0214                     	;# 
   253  0215                     	;# 
   254  0215                     	;# 
   255  0215                     	;# 
   256  0216                     	;# 
   257  0216                     	;# 
   258  0217                     	;# 
   259  0217                     	;# 
   260  0291                     	;# 
   261  0291                     	;# 
   262  0292                     	;# 
   263  0293                     	;# 
   264  0298                     	;# 
   265  0298                     	;# 
   266  0299                     	;# 
   267  029A                     	;# 
   268  0394                     	;# 
   269  0395                     	;# 
   270  0396                     	;# 
   271  0FE4                     	;# 
   272  0FE5                     	;# 
   273  0FE6                     	;# 
   274  0FE7                     	;# 
   275  0FE8                     	;# 
   276  0FE9                     	;# 
   277  0FEA                     	;# 
   278  0FEB                     	;# 
   279  0FED                     	;# 
   280  0FEE                     	;# 
   281  0FEF                     	;# 
   282  0000                     	;# 
   283  0001                     	;# 
   284  0002                     	;# 
   285  0003                     	;# 
   286  0004                     	;# 
   287  0005                     	;# 
   288  0006                     	;# 
   289  0007                     	;# 
   290  0008                     	;# 
   291  0009                     	;# 
   292  000A                     	;# 
   293  000B                     	;# 
   294  000C                     	;# 
   295  000D                     	;# 
   296  000E                     	;# 
   297  0010                     	;# 
   298  0011                     	;# 
   299  0012                     	;# 
   300  0015                     	;# 
   301  0016                     	;# 
   302  0016                     	;# 
   303  0017                     	;# 
   304  0018                     	;# 
   305  0019                     	;# 
   306  001A                     	;# 
   307  001B                     	;# 
   308  001C                     	;# 
   309  008C                     	;# 
   310  008D                     	;# 
   311  008E                     	;# 
   312  0090                     	;# 
   313  0091                     	;# 
   314  0092                     	;# 
   315  0095                     	;# 
   316  0096                     	;# 
   317  0097                     	;# 
   318  0099                     	;# 
   319  009A                     	;# 
   320  009B                     	;# 
   321  009B                     	;# 
   322  009C                     	;# 
   323  009D                     	;# 
   324  009E                     	;# 
   325  010C                     	;# 
   326  010D                     	;# 
   327  010E                     	;# 
   328  0116                     	;# 
   329  0117                     	;# 
   330  011D                     	;# 
   331  018C                     	;# 
   332  018D                     	;# 
   333  018E                     	;# 
   334  0191                     	;# 
   335  0191                     	;# 
   336  0192                     	;# 
   337  0193                     	;# 
   338  0193                     	;# 
   339  0194                     	;# 
   340  0195                     	;# 
   341  0196                     	;# 
   342  0197                     	;# 
   343  0199                     	;# 
   344  019A                     	;# 
   345  019B                     	;# 
   346  019B                     	;# 
   347  019B                     	;# 
   348  019B                     	;# 
   349  019C                     	;# 
   350  019C                     	;# 
   351  019D                     	;# 
   352  019E                     	;# 
   353  019F                     	;# 
   354  020D                     	;# 
   355  0210                     	;# 
   356  0211                     	;# 
   357  0211                     	;# 
   358  0212                     	;# 
   359  0212                     	;# 
   360  0213                     	;# 
   361  0213                     	;# 
   362  0214                     	;# 
   363  0214                     	;# 
   364  0215                     	;# 
   365  0215                     	;# 
   366  0215                     	;# 
   367  0216                     	;# 
   368  0216                     	;# 
   369  0217                     	;# 
   370  0217                     	;# 
   371  0291                     	;# 
   372  0291                     	;# 
   373  0292                     	;# 
   374  0293                     	;# 
   375  0298                     	;# 
   376  0298                     	;# 
   377  0299                     	;# 
   378  029A                     	;# 
   379  0394                     	;# 
   380  0395                     	;# 
   381  0396                     	;# 
   382  0FE4                     	;# 
   383  0FE5                     	;# 
   384  0FE6                     	;# 
   385  0FE7                     	;# 
   386  0FE8                     	;# 
   387  0FE9                     	;# 
   388  0FEA                     	;# 
   389  0FEB                     	;# 
   390  0FED                     	;# 
   391  0FEE                     	;# 
   392  0FEF                     	;# 
   393  0000                     	;# 
   394  0001                     	;# 
   395  0002                     	;# 
   396  0003                     	;# 
   397  0004                     	;# 
   398  0005                     	;# 
   399  0006                     	;# 
   400  0007                     	;# 
   401  0008                     	;# 
   402  0009                     	;# 
   403  000A                     	;# 
   404  000B                     	;# 
   405  000C                     	;# 
   406  000D                     	;# 
   407  000E                     	;# 
   408  0010                     	;# 
   409  0011                     	;# 
   410  0012                     	;# 
   411  0015                     	;# 
   412  0016                     	;# 
   413  0016                     	;# 
   414  0017                     	;# 
   415  0018                     	;# 
   416  0019                     	;# 
   417  001A                     	;# 
   418  001B                     	;# 
   419  001C                     	;# 
   420  008C                     	;# 
   421  008D                     	;# 
   422  008E                     	;# 
   423  0090                     	;# 
   424  0091                     	;# 
   425  0092                     	;# 
   426  0095                     	;# 
   427  0096                     	;# 
   428  0097                     	;# 
   429  0099                     	;# 
   430  009A                     	;# 
   431  009B                     	;# 
   432  009B                     	;# 
   433  009C                     	;# 
   434  009D                     	;# 
   435  009E                     	;# 
   436  010C                     	;# 
   437  010D                     	;# 
   438  010E                     	;# 
   439  0116                     	;# 
   440  0117                     	;# 
   441  011D                     	;# 
   442  018C                     	;# 
   443  018D                     	;# 
   444  018E                     	;# 
   445  0191                     	;# 
   446  0191                     	;# 
   447  0192                     	;# 
   448  0193                     	;# 
   449  0193                     	;# 
   450  0194                     	;# 
   451  0195                     	;# 
   452  0196                     	;# 
   453  0197                     	;# 
   454  0199                     	;# 
   455  019A                     	;# 
   456  019B                     	;# 
   457  019B                     	;# 
   458  019B                     	;# 
   459  019B                     	;# 
   460  019C                     	;# 
   461  019C                     	;# 
   462  019D                     	;# 
   463  019E                     	;# 
   464  019F                     	;# 
   465  020D                     	;# 
   466  0210                     	;# 
   467  0211                     	;# 
   468  0211                     	;# 
   469  0212                     	;# 
   470  0212                     	;# 
   471  0213                     	;# 
   472  0213                     	;# 
   473  0214                     	;# 
   474  0214                     	;# 
   475  0215                     	;# 
   476  0215                     	;# 
   477  0215                     	;# 
   478  0216                     	;# 
   479  0216                     	;# 
   480  0217                     	;# 
   481  0217                     	;# 
   482  0291                     	;# 
   483  0291                     	;# 
   484  0292                     	;# 
   485  0293                     	;# 
   486  0298                     	;# 
   487  0298                     	;# 
   488  0299                     	;# 
   489  029A                     	;# 
   490  0394                     	;# 
   491  0395                     	;# 
   492  0396                     	;# 
   493  0FE4                     	;# 
   494  0FE5                     	;# 
   495  0FE6                     	;# 
   496  0FE7                     	;# 
   497  0FE8                     	;# 
   498  0FE9                     	;# 
   499  0FEA                     	;# 
   500  0FEB                     	;# 
   501  0FED                     	;# 
   502  0FEE                     	;# 
   503  0FEF                     	;# 
   504  009D                     _ADCON0bits	set	157
   505  009C                     _ADRESH	set	156
   506  009B                     _ADRESL	set	155
   507  009E                     _ADCON1	set	158
   508  009D                     _ADCON0	set	157
   509  0095                     _OPTION_REGbits	set	149
   510  008E                     _TRISC	set	142
   511  008D                     _TRISB	set	141
   512  008C                     _TRISA	set	140
   513  0097                     _WDTCON	set	151
   514  0099                     _OSCCON	set	153
   515  010E                     _LATCbits	set	270
   516  010C                     _LATAbits	set	268
   517  011D                     _APFCON	set	285
   518  010E                     _LATC	set	270
   519  010D                     _LATB	set	269
   520  010C                     _LATA	set	268
   521  0116                     _BORCON	set	278
   522  018C                     _ANSELA	set	396
   523  018D                     _ANSELB	set	397
   524  018E                     _ANSELC	set	398
   525  020D                     _WPUB	set	525
   526  0210                     _WPUE	set	528
   527                           
   528                           ; #config settings
   529  0000                     
   530                           	psect	cinit
   531  07FA                     start_initialization:	
   532  07FA                     __initialization:	
   533                           
   534                           ; Clear objects allocated to BANK0
   535  07FA  0020               	movlb	0	; select bank0
   536  07FB  01E5               	clrf	__pbssBANK0& (0+127)
   537  07FC  01E6               	clrf	(__pbssBANK0+1)& (0+127)
   538  07FD                     end_of_initialization:	
   539                           ;End of C runtime variable initialization code
   540                           
   541  07FD                     __end_of__initialization:	
   542  07FD  0020               	movlb	0
   543  07FE  3181  2938         	ljmp	_main	;jump to C main() function
   544                           
   545                           	psect	bssBANK0
   546  0065                     __pbssBANK0:	
   547  0065                     _ADC_InterruptHandler:	
   548  0065                     	ds	2
   549                           
   550                           	psect	cstackCOMMON
   551  0070                     __pcstackCOMMON:	
   552  0070                     ?_PIN_MANAGER_Initialize:	
   553  0070                     ??_PIN_MANAGER_Initialize:	
   554                           ; 1 bytes @ 0x0
   555                           
   556  0070                     ?_OSCILLATOR_Initialize:	
   557                           ; 1 bytes @ 0x0
   558                           
   559  0070                     ??_OSCILLATOR_Initialize:	
   560                           ; 1 bytes @ 0x0
   561                           
   562  0070                     ?_WDT_Initialize:	
   563                           ; 1 bytes @ 0x0
   564                           
   565  0070                     ??_WDT_Initialize:	
   566                           ; 1 bytes @ 0x0
   567                           
   568  0070                     ?_ADC_Initialize:	
   569                           ; 1 bytes @ 0x0
   570                           
   571  0070                     ??_ADC_Initialize:	
   572                           ; 1 bytes @ 0x0
   573                           
   574  0070                     ?_call_number:	
   575                           ; 1 bytes @ 0x0
   576                           
   577  0070                     ?_SYSTEM_Initialize:	
   578                           ; 1 bytes @ 0x0
   579                           
   580  0070                     ??_SYSTEM_Initialize:	
   581                           ; 1 bytes @ 0x0
   582                           
   583  0070                     ?_main:	
   584                           ; 1 bytes @ 0x0
   585                           
   586  0070                     ?_ADC_GetConversion:	
   587                           ; 1 bytes @ 0x0
   588                           
   589  0070                     ?__Umul8_16:	
   590                           ; 2 bytes @ 0x0
   591                           
   592  0070                     ?___awmod:	
   593                           ; 2 bytes @ 0x0
   594                           
   595  0070                     ?___xxtofl:	
   596                           ; 2 bytes @ 0x0
   597                           
   598  0070                     __Umul8_16@multiplicand:	
   599                           ; 4 bytes @ 0x0
   600                           
   601  0070                     call_number@nb:	
   602                           ; 1 bytes @ 0x0
   603                           
   604  0070                     ___awmod@divisor:	
   605                           ; 2 bytes @ 0x0
   606                           
   607  0070                     ___xxtofl@val:	
   608                           ; 2 bytes @ 0x0
   609                           
   610                           
   611                           ; 4 bytes @ 0x0
   612  0070                     	ds	2
   613  0072                     ??_call_number:	
   614  0072                     ??_ADC_GetConversion:	
   615                           ; 1 bytes @ 0x2
   616                           
   617  0072                     ??__Umul8_16:	
   618                           ; 1 bytes @ 0x2
   619                           
   620  0072                     ___awmod@dividend:	
   621                           ; 1 bytes @ 0x2
   622                           
   623                           
   624                           ; 2 bytes @ 0x2
   625  0072                     	ds	1
   626  0073                     ADC_GetConversion@channel:	
   627                           
   628                           ; 1 bytes @ 0x3
   629  0073                     	ds	1
   630  0074                     ??___awmod:	
   631  0074                     ??___xxtofl:	
   632                           ; 1 bytes @ 0x4
   633                           
   634  0074                     __Umul8_16@product:	
   635                           ; 1 bytes @ 0x4
   636                           
   637                           
   638                           ; 2 bytes @ 0x4
   639  0074                     	ds	1
   640  0075                     ___awmod@counter:	
   641                           
   642                           ; 1 bytes @ 0x5
   643  0075                     	ds	1
   644  0076                     ___awmod@sign:	
   645  0076                     __Umul8_16@word_mpld:	
   646                           ; 1 bytes @ 0x6
   647                           
   648                           
   649                           ; 2 bytes @ 0x6
   650  0076                     	ds	1
   651  0077                     ?___awdiv:	
   652  0077                     ___awdiv@divisor:	
   653                           ; 2 bytes @ 0x7
   654                           
   655                           
   656                           ; 2 bytes @ 0x7
   657  0077                     	ds	1
   658  0078                     ___xxtofl@sign:	
   659  0078                     __Umul8_16@multiplier:	
   660                           ; 1 bytes @ 0x8
   661                           
   662                           
   663                           ; 1 bytes @ 0x8
   664  0078                     	ds	1
   665  0079                     ___xxtofl@exp:	
   666  0079                     ___awdiv@dividend:	
   667                           ; 1 bytes @ 0x9
   668                           
   669                           
   670                           ; 2 bytes @ 0x9
   671  0079                     	ds	1
   672  007A                     ___xxtofl@arg:	
   673                           
   674                           ; 4 bytes @ 0xA
   675  007A                     	ds	1
   676  007B                     ??___awdiv:	
   677                           
   678                           ; 1 bytes @ 0xB
   679  007B                     	ds	1
   680  007C                     ??_ecran:	
   681                           
   682                           ; 1 bytes @ 0xC
   683  007C                     	ds	2
   684  007E                     ??_main:	
   685                           
   686                           	psect	cstackBANK0
   687  0020                     __pcstackBANK0:	
   688                           ; 1 bytes @ 0xE
   689                           
   690  0020                     ?___fldiv:	
   691  0020                     ___awdiv@counter:	
   692                           ; 4 bytes @ 0x0
   693                           
   694  0020                     ___fldiv@a:	
   695                           ; 1 bytes @ 0x0
   696                           
   697                           
   698                           ; 4 bytes @ 0x0
   699  0020                     	ds	1
   700  0021                     ___awdiv@sign:	
   701                           
   702                           ; 1 bytes @ 0x1
   703  0021                     	ds	1
   704  0022                     ___awdiv@quotient:	
   705                           
   706                           ; 2 bytes @ 0x2
   707  0022                     	ds	2
   708  0024                     ?_ecran:	
   709  0024                     ecran@nombre:	
   710                           ; 1 bytes @ 0x4
   711                           
   712  0024                     ___fldiv@b:	
   713                           ; 2 bytes @ 0x4
   714                           
   715                           
   716                           ; 4 bytes @ 0x4
   717  0024                     	ds	2
   718  0026                     ecran@nb1:	
   719                           
   720                           ; 2 bytes @ 0x6
   721  0026                     	ds	2
   722  0028                     ??___fldiv:	
   723  0028                     ecran@nb2:	
   724                           ; 1 bytes @ 0x8
   725                           
   726                           
   727                           ; 2 bytes @ 0x8
   728  0028                     	ds	2
   729  002A                     ecran@nb3:	
   730                           
   731                           ; 2 bytes @ 0xA
   732  002A                     	ds	3
   733  002D                     ___fldiv@rem:	
   734                           
   735                           ; 4 bytes @ 0xD
   736  002D                     	ds	4
   737  0031                     ___fldiv@sign:	
   738                           
   739                           ; 1 bytes @ 0x11
   740  0031                     	ds	1
   741  0032                     ___fldiv@new_exp:	
   742                           
   743                           ; 2 bytes @ 0x12
   744  0032                     	ds	2
   745  0034                     ___fldiv@grs:	
   746                           
   747                           ; 4 bytes @ 0x14
   748  0034                     	ds	4
   749  0038                     ___fldiv@bexp:	
   750                           
   751                           ; 1 bytes @ 0x18
   752  0038                     	ds	1
   753  0039                     ___fldiv@aexp:	
   754                           
   755                           ; 1 bytes @ 0x19
   756  0039                     	ds	1
   757  003A                     ?___flmul:	
   758  003A                     ___flmul@b:	
   759                           ; 4 bytes @ 0x1A
   760                           
   761                           
   762                           ; 4 bytes @ 0x1A
   763  003A                     	ds	4
   764  003E                     ___flmul@a:	
   765                           
   766                           ; 4 bytes @ 0x1E
   767  003E                     	ds	4
   768  0042                     ??___flmul:	
   769                           
   770                           ; 1 bytes @ 0x22
   771  0042                     	ds	5
   772  0047                     ___flmul@sign:	
   773                           
   774                           ; 1 bytes @ 0x27
   775  0047                     	ds	1
   776  0048                     ___flmul@grs:	
   777                           
   778                           ; 4 bytes @ 0x28
   779  0048                     	ds	4
   780  004C                     ___flmul@aexp:	
   781                           
   782                           ; 1 bytes @ 0x2C
   783  004C                     	ds	1
   784  004D                     ___flmul@bexp:	
   785                           
   786                           ; 1 bytes @ 0x2D
   787  004D                     	ds	1
   788  004E                     ___flmul@prod:	
   789                           
   790                           ; 4 bytes @ 0x2E
   791  004E                     	ds	4
   792  0052                     ___flmul@temp:	
   793                           
   794                           ; 2 bytes @ 0x32
   795  0052                     	ds	2
   796  0054                     ?___fltol:	
   797  0054                     ___fltol@f1:	
   798                           ; 4 bytes @ 0x34
   799                           
   800                           
   801                           ; 4 bytes @ 0x34
   802  0054                     	ds	4
   803  0058                     ??___fltol:	
   804                           
   805                           ; 1 bytes @ 0x38
   806  0058                     	ds	5
   807  005D                     ___fltol@sign1:	
   808                           
   809                           ; 1 bytes @ 0x3D
   810  005D                     	ds	1
   811  005E                     ___fltol@exp1:	
   812                           
   813                           ; 1 bytes @ 0x3E
   814  005E                     	ds	1
   815  005F                     main@tension:	
   816                           
   817                           ; 2 bytes @ 0x3F
   818  005F                     	ds	2
   819  0061                     main@conversion:	
   820                           
   821                           ; 2 bytes @ 0x41
   822  0061                     	ds	2
   823  0063                     main@timmer:	
   824                           
   825                           ; 2 bytes @ 0x43
   826  0063                     	ds	2
   827                           
   828                           	psect	maintext
   829  0138                     __pmaintext:	
   830 ;;
   831 ;;Main: autosize = 0, tempsize = 0, incstack = 0, save=0
   832 ;;
   833 ;; *************** function _main *****************
   834 ;; Defined at:
   835 ;;		line 156 in file "main.c"
   836 ;; Parameters:    Size  Location     Type
   837 ;;		None
   838 ;; Auto vars:     Size  Location     Type
   839 ;;  tension         2   63[BANK0 ] int 
   840 ;;  timmer          2   67[BANK0 ] int 
   841 ;;  conversion      2   65[BANK0 ] int 
   842 ;; Return value:  Size  Location     Type
   843 ;;                  1    wreg      void 
   844 ;; Registers used:
   845 ;;		wreg, status,2, status,0, pclath, cstack
   846 ;; Tracked objects:
   847 ;;		On entry : B1F/0
   848 ;;		On exit  : 0/0
   849 ;;		Unchanged: 0/0
   850 ;; Data sizes:     COMMON   BANK0   BANK1   BANK2   BANK3   BANK4   BANK5   BANK6   BANK7   BANK8   BANK9  BANK10  BANK1
      +1  BANK12
   851 ;;      Params:         0       0       0       0       0       0       0       0       0       0       0       0       
      +0       0
   852 ;;      Locals:         0       6       0       0       0       0       0       0       0       0       0       0       
      +0       0
   853 ;;      Temps:          0       0       0       0       0       0       0       0       0       0       0       0       
      +0       0
   854 ;;      Totals:         0       6       0       0       0       0       0       0       0       0       0       0       
      +0       0
   855 ;;Total ram usage:        6 bytes
   856 ;; Hardware stack levels required when called:    2
   857 ;; This function calls:
   858 ;;		_ADC_GetConversion
   859 ;;		_SYSTEM_Initialize
   860 ;;		___fldiv
   861 ;;		___flmul
   862 ;;		___fltol
   863 ;;		___xxtofl
   864 ;;		_ecran
   865 ;; This function is called by:
   866 ;;		Startup code after reset
   867 ;; This function uses a non-reentrant model
   868 ;;
   869                           
   870                           
   871                           ;psect for function _main
   872  0138                     _main:	
   873  0138                     l1936:	
   874                           ;incstack = 0
   875                           ; Regs used in _main: [wreg+status,2+status,0+pclath+cstack]
   876                           
   877                           
   878                           ;main.c: 158:     SYSTEM_Initialize();
   879  0138  3180  2022  3181   	fcall	_SYSTEM_Initialize
   880  013B                     l1938:	
   881                           
   882                           ;main.c: 159:     int timmer = 0;
   883  013B  0020               	movlb	0	; select bank0
   884  013C  01E3               	clrf	main@timmer
   885  013D  01E4               	clrf	main@timmer+1
   886  013E                     l1940:	
   887                           
   888                           ;main.c: 160:     int conversion = 0;
   889  013E  01E1               	clrf	main@conversion
   890  013F  01E2               	clrf	main@conversion+1
   891  0140                     l1942:	
   892                           
   893                           ;main.c: 163:     {;main.c: 164:         if(timmer==999)
   894  0140  30E7               	movlw	231
   895  0141  0020               	movlb	0	; select bank0
   896  0142  0663               	xorwf	main@timmer,w
   897  0143  3003               	movlw	3
   898  0144  1903               	skipnz
   899  0145  0664               	xorwf	main@timmer+1,w
   900  0146  1D03               	btfss	3,2
   901  0147  2949               	goto	u2261
   902  0148  294A               	goto	u2260
   903  0149                     u2261:	
   904  0149  299C               	goto	l1950
   905  014A                     u2260:	
   906  014A                     l1944:	
   907                           
   908                           ;main.c: 165:         {;main.c: 166:             timmer = 0;
   909  014A  01E3               	clrf	main@timmer
   910  014B  01E4               	clrf	main@timmer+1
   911  014C                     l1946:	
   912                           
   913                           ;main.c: 167:             int tension = ADC_GetConversion(0);
   914  014C  3000               	movlw	0
   915  014D  3180  2047  3181   	fcall	_ADC_GetConversion
   916  0150  0871               	movf	?_ADC_GetConversion+1,w
   917  0151  0020               	movlb	0	; select bank0
   918  0152  00E0               	movwf	main@tension+1
   919  0153  0870               	movf	?_ADC_GetConversion,w
   920  0154  00DF               	movwf	main@tension
   921  0155                     l1948:	
   922                           
   923                           ;main.c: 168:             conversion = (tension/2.048)*10;
   924  0155  085F               	movf	main@tension,w
   925  0156  00F0               	movwf	___xxtofl@val
   926  0157  0860               	movf	main@tension+1,w
   927  0158  00F1               	movwf	___xxtofl@val+1
   928  0159  0D89               	rlf	9,f
   929  015A  3B89               	subwfb	9,f
   930  015B  0989               	comf	9,f
   931  015C  00F2               	movwf	___xxtofl@val+2
   932  015D  00F3               	movwf	___xxtofl@val+3
   933  015E  3001               	movlw	1
   934  015F  3183  2343  3181   	fcall	___xxtofl
   935  0162  0873               	movf	?___xxtofl+3,w
   936  0163  0020               	movlb	0	; select bank0
   937  0164  00A7               	movwf	___fldiv@b+3
   938  0165  0872               	movf	?___xxtofl+2,w
   939  0166  00A6               	movwf	___fldiv@b+2
   940  0167  0871               	movf	?___xxtofl+1,w
   941  0168  00A5               	movwf	___fldiv@b+1
   942  0169  0870               	movf	?___xxtofl,w
   943  016A  00A4               	movwf	___fldiv@b
   944  016B  3040               	movlw	64
   945  016C  00A3               	movwf	___fldiv@a+3
   946  016D  3003               	movlw	3
   947  016E  00A2               	movwf	___fldiv@a+2
   948  016F  3012               	movlw	18
   949  0170  00A1               	movwf	___fldiv@a+1
   950  0171  306F               	movlw	111
   951  0172  00A0               	movwf	___fldiv@a
   952  0173  3183  23EF  3181   	fcall	___fldiv
   953  0176  0020               	movlb	0	; select bank0
   954  0177  0823               	movf	?___fldiv+3,w
   955  0178  00C1               	movwf	___flmul@a+3
   956  0179  0822               	movf	?___fldiv+2,w
   957  017A  00C0               	movwf	___flmul@a+2
   958  017B  0821               	movf	?___fldiv+1,w
   959  017C  00BF               	movwf	___flmul@a+1
   960  017D  0820               	movf	?___fldiv,w
   961  017E  00BE               	movwf	___flmul@a
   962  017F  3041               	movlw	65
   963  0180  00BD               	movwf	___flmul@b+3
   964  0181  3020               	movlw	32
   965  0182  00BC               	movwf	___flmul@b+2
   966  0183  3000               	movlw	0
   967  0184  00BB               	movwf	___flmul@b+1
   968  0185  3000               	movlw	0
   969  0186  00BA               	movwf	___flmul@b
   970  0187  3185  25A3  3181   	fcall	___flmul
   971  018A  0020               	movlb	0	; select bank0
   972  018B  083D               	movf	?___flmul+3,w
   973  018C  00D7               	movwf	___fltol@f1+3
   974  018D  083C               	movf	?___flmul+2,w
   975  018E  00D6               	movwf	___fltol@f1+2
   976  018F  083B               	movf	?___flmul+1,w
   977  0190  00D5               	movwf	___fltol@f1+1
   978  0191  083A               	movf	?___flmul,w
   979  0192  00D4               	movwf	___fltol@f1
   980  0193  3181  21AA  3181   	fcall	___fltol
   981  0196  0020               	movlb	0	; select bank0
   982  0197  0855               	movf	?___fltol+1,w
   983  0198  00E2               	movwf	main@conversion+1
   984  0199  0854               	movf	?___fltol,w
   985  019A  00E1               	movwf	main@conversion
   986                           
   987                           ;main.c: 169:         }
   988  019B  29A0               	goto	l1952
   989  019C                     l1950:	
   990                           
   991                           ;main.c: 171:             timmer += 1;
   992  019C  3001               	movlw	1
   993  019D  07E3               	addwf	main@timmer,f
   994  019E  3000               	movlw	0
   995  019F  3DE4               	addwfc	main@timmer+1,f
   996  01A0                     l1952:	
   997                           
   998                           ;main.c: 172:         ecran(conversion);
   999  01A0  0862               	movf	main@conversion+1,w
  1000  01A1  00A5               	movwf	ecran@nombre+1
  1001  01A2  0861               	movf	main@conversion,w
  1002  01A3  00A4               	movwf	ecran@nombre
  1003  01A4  3182  221F  3181   	fcall	_ecran
  1004  01A7  2940               	goto	l1942
  1005  01A8  3180  2802         	ljmp	start
  1006  01AA                     __end_of_main:	
  1007                           
  1008                           	psect	text1
  1009  021F                     __ptext1:	
  1010 ;; *************** function _ecran *****************
  1011 ;; Defined at:
  1012 ;;		line 5 in file "main.c"
  1013 ;; Parameters:    Size  Location     Type
  1014 ;;  nombre          2    4[BANK0 ] int 
  1015 ;; Auto vars:     Size  Location     Type
  1016 ;;  nb3             2   10[BANK0 ] int 
  1017 ;;  nb2             2    8[BANK0 ] int 
  1018 ;;  nb1             2    6[BANK0 ] int 
  1019 ;; Return value:  Size  Location     Type
  1020 ;;                  1    wreg      void 
  1021 ;; Registers used:
  1022 ;;		wreg, status,2, status,0, pclath, cstack
  1023 ;; Tracked objects:
  1024 ;;		On entry : 0/0
  1025 ;;		On exit  : 0/0
  1026 ;;		Unchanged: 0/0
  1027 ;; Data sizes:     COMMON   BANK0   BANK1   BANK2   BANK3   BANK4   BANK5   BANK6   BANK7   BANK8   BANK9  BANK10  BANK1
      +1  BANK12
  1028 ;;      Params:         0       2       0       0       0       0       0       0       0       0       0       0       
      +0       0
  1029 ;;      Locals:         0       6       0       0       0       0       0       0       0       0       0       0       
      +0       0
  1030 ;;      Temps:          1       0       0       0       0       0       0       0       0       0       0       0       
      +0       0
  1031 ;;      Totals:         1       8       0       0       0       0       0       0       0       0       0       0       
      +0       0
  1032 ;;Total ram usage:        9 bytes
  1033 ;; Hardware stack levels used:    1
  1034 ;; Hardware stack levels required when called:    1
  1035 ;; This function calls:
  1036 ;;		___awdiv
  1037 ;;		___awmod
  1038 ;;		_call_number
  1039 ;; This function is called by:
  1040 ;;		_main
  1041 ;; This function uses a non-reentrant model
  1042 ;;
  1043                           
  1044                           
  1045                           ;psect for function _ecran
  1046  021F                     _ecran:	
  1047  021F                     l1538:	
  1048                           ;incstack = 0
  1049                           ; Regs used in _ecran: [wreg+status,2+status,0+pclath+cstack]
  1050                           
  1051                           
  1052                           ;main.c: 5: void ecran(int nombre);main.c: 6: {;main.c: 8:   int nb1 = nombre%10;
  1053  021F  300A               	movlw	10
  1054  0220  00F0               	movwf	___awmod@divisor
  1055  0221  3000               	movlw	0
  1056  0222  00F1               	movwf	___awmod@divisor+1
  1057  0223  0020               	movlb	0	; select bank0
  1058  0224  0825               	movf	ecran@nombre+1,w
  1059  0225  00F3               	movwf	___awmod@dividend+1
  1060  0226  0824               	movf	ecran@nombre,w
  1061  0227  00F2               	movwf	___awmod@dividend
  1062  0228  3180  2085  3182   	fcall	___awmod
  1063  022B  0871               	movf	?___awmod+1,w
  1064  022C  0020               	movlb	0	; select bank0
  1065  022D  00A7               	movwf	ecran@nb1+1
  1066  022E  0870               	movf	?___awmod,w
  1067  022F  00A6               	movwf	ecran@nb1
  1068                           
  1069                           ;main.c: 9:   int nb2 = (nombre%100)/10;
  1070  0230  300A               	movlw	10
  1071  0231  00F7               	movwf	___awdiv@divisor
  1072  0232  3000               	movlw	0
  1073  0233  00F8               	movwf	___awdiv@divisor+1
  1074  0234  0825               	movf	ecran@nombre+1,w
  1075  0235  00F3               	movwf	___awmod@dividend+1
  1076  0236  0824               	movf	ecran@nombre,w
  1077  0237  00F2               	movwf	___awmod@dividend
  1078  0238  3064               	movlw	100
  1079  0239  00F0               	movwf	___awmod@divisor
  1080  023A  3000               	movlw	0
  1081  023B  00F1               	movwf	___awmod@divisor+1
  1082  023C  3180  2085  3182   	fcall	___awmod
  1083  023F  0871               	movf	?___awmod+1,w
  1084  0240  00FA               	movwf	___awdiv@dividend+1
  1085  0241  0870               	movf	?___awmod,w
  1086  0242  00F9               	movwf	___awdiv@dividend
  1087  0243  3180  20D8  3182   	fcall	___awdiv
  1088  0246  0878               	movf	?___awdiv+1,w
  1089  0247  0020               	movlb	0	; select bank0
  1090  0248  00A9               	movwf	ecran@nb2+1
  1091  0249  0877               	movf	?___awdiv,w
  1092  024A  00A8               	movwf	ecran@nb2
  1093                           
  1094                           ;main.c: 10:   int nb3 = (nombre%1000)/100;
  1095  024B  3064               	movlw	100
  1096  024C  00F7               	movwf	___awdiv@divisor
  1097  024D  3000               	movlw	0
  1098  024E  00F8               	movwf	___awdiv@divisor+1
  1099  024F  0825               	movf	ecran@nombre+1,w
  1100  0250  00F3               	movwf	___awmod@dividend+1
  1101  0251  0824               	movf	ecran@nombre,w
  1102  0252  00F2               	movwf	___awmod@dividend
  1103  0253  30E8               	movlw	232
  1104  0254  00F0               	movwf	___awmod@divisor
  1105  0255  3003               	movlw	3
  1106  0256  00F1               	movwf	___awmod@divisor+1
  1107  0257  3180  2085  3182   	fcall	___awmod
  1108  025A  0871               	movf	?___awmod+1,w
  1109  025B  00FA               	movwf	___awdiv@dividend+1
  1110  025C  0870               	movf	?___awmod,w
  1111  025D  00F9               	movwf	___awdiv@dividend
  1112  025E  3180  20D8  3182   	fcall	___awdiv
  1113  0261  0878               	movf	?___awdiv+1,w
  1114  0262  0020               	movlb	0	; select bank0
  1115  0263  00AB               	movwf	ecran@nb3+1
  1116  0264  0877               	movf	?___awdiv,w
  1117  0265  00AA               	movwf	ecran@nb3
  1118  0266                     l1540:	
  1119  0266  0022               	movlb	2	; select bank2
  1120  0267  120C               	bcf	12,4	;volatile
  1121  0268                     l71:	
  1122                           
  1123                           ;main.c: 21:   call_number(nb3);
  1124  0268  0020               	movlb	0	; select bank0
  1125  0269  082B               	movf	ecran@nb3+1,w
  1126  026A  00F1               	movwf	call_number@nb+1
  1127  026B  082A               	movf	ecran@nb3,w
  1128  026C  00F0               	movwf	call_number@nb
  1129  026D  3182  22A5  3182   	fcall	_call_number
  1130  0270                     l1542:	
  1131  0270  0022               	movlb	2	; select bank2
  1132  0271  168E               	bsf	14,5	;volatile
  1133  0272                     l1544:	
  1134                           
  1135                           ;main.c: 23:   _delay((unsigned long)((1)*(16000000/4000.0)));
  1136  0272  3006               	movlw	6
  1137  0273  00FC               	movwf	??_ecran
  1138  0274  3030               	movlw	48
  1139  0275                     u2277:	
  1140  0275  0B89               	decfsz	9,f
  1141  0276  2A75               	goto	u2277
  1142  0277  0BFC               	decfsz	??_ecran,f
  1143  0278  2A75               	goto	u2277
  1144  0279  3200               	nop2
  1145  027A                     l1546:	
  1146  027A  0022               	movlb	2	; select bank2
  1147  027B  128E               	bcf	14,5	;volatile
  1148  027C                     l1548:	
  1149                           
  1150                           ;main.c: 27:   call_number(nb2);
  1151  027C  0020               	movlb	0	; select bank0
  1152  027D  0829               	movf	ecran@nb2+1,w
  1153  027E  00F1               	movwf	call_number@nb+1
  1154  027F  0828               	movf	ecran@nb2,w
  1155  0280  00F0               	movwf	call_number@nb
  1156  0281  3182  22A5  3182   	fcall	_call_number
  1157  0284                     l1550:	
  1158  0284  0022               	movlb	2	; select bank2
  1159  0285  170E               	bsf	14,6	;volatile
  1160  0286                     l1552:	
  1161  0286  138C               	bcf	12,7	;volatile
  1162  0287                     l79:	
  1163                           
  1164                           ;main.c: 30:   _delay((unsigned long)((1)*(16000000/4000.0)));
  1165  0287  3006               	movlw	6
  1166  0288  00FC               	movwf	??_ecran
  1167  0289  3030               	movlw	48
  1168  028A                     u2287:	
  1169  028A  0B89               	decfsz	9,f
  1170  028B  2A8A               	goto	u2287
  1171  028C  0BFC               	decfsz	??_ecran,f
  1172  028D  2A8A               	goto	u2287
  1173  028E  3200               	nop2
  1174  028F                     l1554:	
  1175  028F  0022               	movlb	2	; select bank2
  1176  0290  178C               	bsf	12,7	;volatile
  1177  0291                     l1556:	
  1178  0291  130E               	bcf	14,6	;volatile
  1179  0292                     l1558:	
  1180                           
  1181                           ;main.c: 35:   call_number(nb1);
  1182  0292  0020               	movlb	0	; select bank0
  1183  0293  0827               	movf	ecran@nb1+1,w
  1184  0294  00F1               	movwf	call_number@nb+1
  1185  0295  0826               	movf	ecran@nb1,w
  1186  0296  00F0               	movwf	call_number@nb
  1187  0297  3182  22A5  3182   	fcall	_call_number
  1188  029A                     l1560:	
  1189  029A  0022               	movlb	2	; select bank2
  1190  029B  160C               	bsf	12,4	;volatile
  1191  029C                     l1562:	
  1192                           
  1193                           ;main.c: 37:   _delay((unsigned long)((1)*(16000000/4000.0)));
  1194  029C  3006               	movlw	6
  1195  029D  00FC               	movwf	??_ecran
  1196  029E  3030               	movlw	48
  1197  029F                     u2297:	
  1198  029F  0B89               	decfsz	9,f
  1199  02A0  2A9F               	goto	u2297
  1200  02A1  0BFC               	decfsz	??_ecran,f
  1201  02A2  2A9F               	goto	u2297
  1202  02A3  3200               	nop2
  1203  02A4                     l86:	
  1204  02A4  0008               	return
  1205  02A5                     __end_of_ecran:	
  1206                           
  1207                           	psect	text2
  1208  02A5                     __ptext2:	
  1209 ;; *************** function _call_number *****************
  1210 ;; Defined at:
  1211 ;;		line 43 in file "main.c"
  1212 ;; Parameters:    Size  Location     Type
  1213 ;;  nb              2    0[COMMON] int 
  1214 ;; Auto vars:     Size  Location     Type
  1215 ;;		None
  1216 ;; Return value:  Size  Location     Type
  1217 ;;                  1    wreg      void 
  1218 ;; Registers used:
  1219 ;;		wreg, status,2, status,0
  1220 ;; Tracked objects:
  1221 ;;		On entry : 0/0
  1222 ;;		On exit  : 0/0
  1223 ;;		Unchanged: 0/0
  1224 ;; Data sizes:     COMMON   BANK0   BANK1   BANK2   BANK3   BANK4   BANK5   BANK6   BANK7   BANK8   BANK9  BANK10  BANK1
      +1  BANK12
  1225 ;;      Params:         2       0       0       0       0       0       0       0       0       0       0       0       
      +0       0
  1226 ;;      Locals:         0       0       0       0       0       0       0       0       0       0       0       0       
      +0       0
  1227 ;;      Temps:          0       0       0       0       0       0       0       0       0       0       0       0       
      +0       0
  1228 ;;      Totals:         2       0       0       0       0       0       0       0       0       0       0       0       
      +0       0
  1229 ;;Total ram usage:        2 bytes
  1230 ;; Hardware stack levels used:    1
  1231 ;; This function calls:
  1232 ;;		Nothing
  1233 ;; This function is called by:
  1234 ;;		_ecran
  1235 ;; This function uses a non-reentrant model
  1236 ;;
  1237                           
  1238                           
  1239                           ;psect for function _call_number
  1240  02A5                     _call_number:	
  1241  02A5                     l1420:	
  1242                           ;incstack = 0
  1243                           ; Regs used in _call_number: [wreg+status,2+status,0]
  1244                           
  1245                           
  1246                           ;main.c: 43: void call_number(int nb);main.c: 44: {;main.c: 45:   if(nb==0)
  1247  02A5  0870               	movf	call_number@nb,w
  1248  02A6  0471               	iorwf	call_number@nb+1,w
  1249  02A7  1D03               	btfss	3,2
  1250  02A8  2AAA               	goto	u1141
  1251  02A9  2AAB               	goto	u1140
  1252  02AA                     u1141:	
  1253  02AA  2AB4               	goto	l1422
  1254  02AB                     u1140:	
  1255  02AB                     l90:	
  1256                           ;main.c: 46:   {;main.c: 47:   do { LATCbits.LATC3 = 0; } while(0);
  1257                           
  1258  02AB  0022               	movlb	2	; select bank2
  1259  02AC  118E               	bcf	14,3	;volatile
  1260  02AD                     l92:	
  1261                           ;main.c: 48:   do { LATCbits.LATC7 = 0; } while(0);
  1262                           
  1263  02AD  138E               	bcf	14,7	;volatile
  1264  02AE                     l94:	
  1265                           ;main.c: 49:   do { LATAbits.LATA6 = 0; } while(0);
  1266                           
  1267  02AE  130C               	bcf	12,6	;volatile
  1268  02AF                     l96:	
  1269                           ;main.c: 50:   do { LATCbits.LATC0 = 0; } while(0);
  1270                           
  1271  02AF  100E               	bcf	14,0	;volatile
  1272  02B0                     l98:	
  1273                           ;main.c: 51:   do { LATCbits.LATC1 = 0; } while(0);
  1274                           
  1275  02B0  108E               	bcf	14,1	;volatile
  1276  02B1                     l100:	
  1277                           ;main.c: 52:   do { LATCbits.LATC4 = 0; } while(0);
  1278                           
  1279  02B1  120E               	bcf	14,4	;volatile
  1280  02B2                     l102:	
  1281                           ;main.c: 53:   do { LATAbits.LATA5 = 1; } while(0);
  1282                           
  1283  02B2  168C               	bsf	12,5	;volatile
  1284  02B3  2B42               	goto	l248
  1285  02B4                     l1422:	
  1286  02B4  0370               	decf	call_number@nb,w
  1287  02B5  0471               	iorwf	call_number@nb+1,w
  1288  02B6  1D03               	btfss	3,2
  1289  02B7  2AB9               	goto	u1151
  1290  02B8  2ABA               	goto	u1150
  1291  02B9                     u1151:	
  1292  02B9  2AC3               	goto	l1424
  1293  02BA                     u1150:	
  1294  02BA                     l106:	
  1295                           ;main.c: 57:   {;main.c: 58:   do { LATCbits.LATC3 = 1; } while(0);
  1296                           
  1297  02BA  0022               	movlb	2	; select bank2
  1298  02BB  158E               	bsf	14,3	;volatile
  1299  02BC                     l108:	
  1300                           ;main.c: 59:   do { LATCbits.LATC7 = 0; } while(0);
  1301                           
  1302  02BC  138E               	bcf	14,7	;volatile
  1303  02BD                     l110:	
  1304                           ;main.c: 60:   do { LATAbits.LATA6 = 0; } while(0);
  1305                           
  1306  02BD  130C               	bcf	12,6	;volatile
  1307  02BE                     l112:	
  1308                           ;main.c: 61:   do { LATCbits.LATC0 = 1; } while(0);
  1309                           
  1310  02BE  140E               	bsf	14,0	;volatile
  1311  02BF                     l114:	
  1312                           ;main.c: 62:   do { LATCbits.LATC1 = 1; } while(0);
  1313                           
  1314  02BF  148E               	bsf	14,1	;volatile
  1315  02C0                     l116:	
  1316                           ;main.c: 63:   do { LATCbits.LATC4 = 1; } while(0);
  1317                           
  1318  02C0  160E               	bsf	14,4	;volatile
  1319  02C1                     l118:	
  1320                           ;main.c: 64:   do { LATAbits.LATA5 = 1; } while(0);
  1321                           
  1322  02C1  168C               	bsf	12,5	;volatile
  1323  02C2  2B42               	goto	l248
  1324  02C3                     l1424:	
  1325  02C3  3002               	movlw	2
  1326  02C4  0670               	xorwf	call_number@nb,w
  1327  02C5  0471               	iorwf	call_number@nb+1,w
  1328  02C6  1D03               	btfss	3,2
  1329  02C7  2AC9               	goto	u1161
  1330  02C8  2ACA               	goto	u1160
  1331  02C9                     u1161:	
  1332  02C9  2AD3               	goto	l1426
  1333  02CA                     u1160:	
  1334  02CA                     l122:	
  1335                           ;main.c: 68:   {;main.c: 69:   do { LATCbits.LATC3 = 0; } while(0);
  1336                           
  1337  02CA  0022               	movlb	2	; select bank2
  1338  02CB  118E               	bcf	14,3	;volatile
  1339  02CC                     l124:	
  1340                           ;main.c: 70:   do { LATCbits.LATC7 = 0; } while(0);
  1341                           
  1342  02CC  138E               	bcf	14,7	;volatile
  1343  02CD                     l126:	
  1344                           ;main.c: 71:   do { LATAbits.LATA6 = 1; } while(0);
  1345                           
  1346  02CD  170C               	bsf	12,6	;volatile
  1347  02CE                     l128:	
  1348                           ;main.c: 72:   do { LATCbits.LATC0 = 0; } while(0);
  1349                           
  1350  02CE  100E               	bcf	14,0	;volatile
  1351  02CF                     l130:	
  1352                           ;main.c: 73:   do { LATCbits.LATC1 = 0; } while(0);
  1353                           
  1354  02CF  108E               	bcf	14,1	;volatile
  1355  02D0                     l132:	
  1356                           ;main.c: 74:   do { LATCbits.LATC4 = 1; } while(0);
  1357                           
  1358  02D0  160E               	bsf	14,4	;volatile
  1359  02D1                     l134:	
  1360                           ;main.c: 75:   do { LATAbits.LATA5 = 0; } while(0);
  1361                           
  1362  02D1  128C               	bcf	12,5	;volatile
  1363  02D2  2B42               	goto	l248
  1364  02D3                     l1426:	
  1365  02D3  3003               	movlw	3
  1366  02D4  0670               	xorwf	call_number@nb,w
  1367  02D5  0471               	iorwf	call_number@nb+1,w
  1368  02D6  1D03               	btfss	3,2
  1369  02D7  2AD9               	goto	u1171
  1370  02D8  2ADA               	goto	u1170
  1371  02D9                     u1171:	
  1372  02D9  2AE3               	goto	l1428
  1373  02DA                     u1170:	
  1374  02DA                     l138:	
  1375                           ;main.c: 79:   {;main.c: 80:   do { LATCbits.LATC3 = 0; } while(0);
  1376                           
  1377  02DA  0022               	movlb	2	; select bank2
  1378  02DB  118E               	bcf	14,3	;volatile
  1379  02DC                     l140:	
  1380                           ;main.c: 81:   do { LATCbits.LATC7 = 0; } while(0);
  1381                           
  1382  02DC  138E               	bcf	14,7	;volatile
  1383  02DD                     l142:	
  1384                           ;main.c: 82:   do { LATAbits.LATA6 = 0; } while(0);
  1385                           
  1386  02DD  130C               	bcf	12,6	;volatile
  1387  02DE                     l144:	
  1388                           ;main.c: 83:   do { LATCbits.LATC0 = 0; } while(0);
  1389                           
  1390  02DE  100E               	bcf	14,0	;volatile
  1391  02DF                     l146:	
  1392                           ;main.c: 84:   do { LATCbits.LATC1 = 1; } while(0);
  1393                           
  1394  02DF  148E               	bsf	14,1	;volatile
  1395  02E0                     l148:	
  1396                           ;main.c: 85:   do { LATCbits.LATC4 = 1; } while(0);
  1397                           
  1398  02E0  160E               	bsf	14,4	;volatile
  1399  02E1                     l150:	
  1400                           ;main.c: 86:   do { LATAbits.LATA5 = 0; } while(0);
  1401                           
  1402  02E1  128C               	bcf	12,5	;volatile
  1403  02E2  2B42               	goto	l248
  1404  02E3                     l1428:	
  1405  02E3  3004               	movlw	4
  1406  02E4  0670               	xorwf	call_number@nb,w
  1407  02E5  0471               	iorwf	call_number@nb+1,w
  1408  02E6  1D03               	btfss	3,2
  1409  02E7  2AE9               	goto	u1181
  1410  02E8  2AEA               	goto	u1180
  1411  02E9                     u1181:	
  1412  02E9  2AF3               	goto	l1430
  1413  02EA                     u1180:	
  1414  02EA                     l154:	
  1415                           ;main.c: 90:   {;main.c: 91:   do { LATCbits.LATC3 = 1; } while(0);
  1416                           
  1417  02EA  0022               	movlb	2	; select bank2
  1418  02EB  158E               	bsf	14,3	;volatile
  1419  02EC                     l156:	
  1420                           ;main.c: 92:   do { LATCbits.LATC7 = 0; } while(0);
  1421                           
  1422  02EC  138E               	bcf	14,7	;volatile
  1423  02ED                     l158:	
  1424                           ;main.c: 93:   do { LATAbits.LATA6 = 0; } while(0);
  1425                           
  1426  02ED  130C               	bcf	12,6	;volatile
  1427  02EE                     l160:	
  1428                           ;main.c: 94:   do { LATCbits.LATC0 = 1; } while(0);
  1429                           
  1430  02EE  140E               	bsf	14,0	;volatile
  1431  02EF                     l162:	
  1432                           ;main.c: 95:   do { LATCbits.LATC1 = 1; } while(0);
  1433                           
  1434  02EF  148E               	bsf	14,1	;volatile
  1435  02F0                     l164:	
  1436                           ;main.c: 96:   do { LATCbits.LATC4 = 0; } while(0);
  1437                           
  1438  02F0  120E               	bcf	14,4	;volatile
  1439  02F1                     l166:	
  1440                           ;main.c: 97:   do { LATAbits.LATA5 = 0; } while(0);
  1441                           
  1442  02F1  128C               	bcf	12,5	;volatile
  1443  02F2  2B42               	goto	l248
  1444  02F3                     l1430:	
  1445  02F3  3005               	movlw	5
  1446  02F4  0670               	xorwf	call_number@nb,w
  1447  02F5  0471               	iorwf	call_number@nb+1,w
  1448  02F6  1D03               	btfss	3,2
  1449  02F7  2AF9               	goto	u1191
  1450  02F8  2AFA               	goto	u1190
  1451  02F9                     u1191:	
  1452  02F9  2B03               	goto	l1432
  1453  02FA                     u1190:	
  1454  02FA                     l170:	
  1455                           ;main.c: 101:   {;main.c: 102:   do { LATCbits.LATC3 = 0; } while(0);
  1456                           
  1457  02FA  0022               	movlb	2	; select bank2
  1458  02FB  118E               	bcf	14,3	;volatile
  1459  02FC                     l172:	
  1460                           ;main.c: 103:   do { LATCbits.LATC7 = 1; } while(0);
  1461                           
  1462  02FC  178E               	bsf	14,7	;volatile
  1463  02FD                     l174:	
  1464                           ;main.c: 104:   do { LATAbits.LATA6 = 0; } while(0);
  1465                           
  1466  02FD  130C               	bcf	12,6	;volatile
  1467  02FE                     l176:	
  1468                           ;main.c: 105:   do { LATCbits.LATC0 = 0; } while(0);
  1469                           
  1470  02FE  100E               	bcf	14,0	;volatile
  1471  02FF                     l178:	
  1472                           ;main.c: 106:   do { LATCbits.LATC1 = 1; } while(0);
  1473                           
  1474  02FF  148E               	bsf	14,1	;volatile
  1475  0300                     l180:	
  1476                           ;main.c: 107:   do { LATCbits.LATC4 = 0; } while(0);
  1477                           
  1478  0300  120E               	bcf	14,4	;volatile
  1479  0301                     l182:	
  1480                           ;main.c: 108:   do { LATAbits.LATA5 = 0; } while(0);
  1481                           
  1482  0301  128C               	bcf	12,5	;volatile
  1483  0302  2B42               	goto	l248
  1484  0303                     l1432:	
  1485  0303  3006               	movlw	6
  1486  0304  0670               	xorwf	call_number@nb,w
  1487  0305  0471               	iorwf	call_number@nb+1,w
  1488  0306  1D03               	btfss	3,2
  1489  0307  2B09               	goto	u1201
  1490  0308  2B0A               	goto	u1200
  1491  0309                     u1201:	
  1492  0309  2B13               	goto	l1434
  1493  030A                     u1200:	
  1494  030A                     l186:	
  1495                           ;main.c: 112:   {;main.c: 113:   do { LATCbits.LATC3 = 0; } while(0);
  1496                           
  1497  030A  0022               	movlb	2	; select bank2
  1498  030B  118E               	bcf	14,3	;volatile
  1499  030C                     l188:	
  1500                           ;main.c: 114:   do { LATCbits.LATC7 = 1; } while(0);
  1501                           
  1502  030C  178E               	bsf	14,7	;volatile
  1503  030D                     l190:	
  1504                           ;main.c: 115:   do { LATAbits.LATA6 = 0; } while(0);
  1505                           
  1506  030D  130C               	bcf	12,6	;volatile
  1507  030E                     l192:	
  1508                           ;main.c: 116:   do { LATCbits.LATC0 = 0; } while(0);
  1509                           
  1510  030E  100E               	bcf	14,0	;volatile
  1511  030F                     l194:	
  1512                           ;main.c: 117:   do { LATCbits.LATC1 = 0; } while(0);
  1513                           
  1514  030F  108E               	bcf	14,1	;volatile
  1515  0310                     l196:	
  1516                           ;main.c: 118:   do { LATCbits.LATC4 = 0; } while(0);
  1517                           
  1518  0310  120E               	bcf	14,4	;volatile
  1519  0311                     l198:	
  1520                           ;main.c: 119:   do { LATAbits.LATA5 = 0; } while(0);
  1521                           
  1522  0311  128C               	bcf	12,5	;volatile
  1523  0312  2B42               	goto	l248
  1524  0313                     l1434:	
  1525  0313  3007               	movlw	7
  1526  0314  0670               	xorwf	call_number@nb,w
  1527  0315  0471               	iorwf	call_number@nb+1,w
  1528  0316  1D03               	btfss	3,2
  1529  0317  2B19               	goto	u1211
  1530  0318  2B1A               	goto	u1210
  1531  0319                     u1211:	
  1532  0319  2B23               	goto	l1436
  1533  031A                     u1210:	
  1534  031A                     l202:	
  1535                           ;main.c: 123:   {;main.c: 124:   do { LATCbits.LATC3 = 0; } while(0);
  1536                           
  1537  031A  0022               	movlb	2	; select bank2
  1538  031B  118E               	bcf	14,3	;volatile
  1539  031C                     l204:	
  1540                           ;main.c: 125:   do { LATCbits.LATC7 = 0; } while(0);
  1541                           
  1542  031C  138E               	bcf	14,7	;volatile
  1543  031D                     l206:	
  1544                           ;main.c: 126:   do { LATAbits.LATA6 = 0; } while(0);
  1545                           
  1546  031D  130C               	bcf	12,6	;volatile
  1547  031E                     l208:	
  1548                           ;main.c: 127:   do { LATCbits.LATC0 = 1; } while(0);
  1549                           
  1550  031E  140E               	bsf	14,0	;volatile
  1551  031F                     l210:	
  1552                           ;main.c: 128:   do { LATCbits.LATC1 = 1; } while(0);
  1553                           
  1554  031F  148E               	bsf	14,1	;volatile
  1555  0320                     l212:	
  1556                           ;main.c: 129:   do { LATCbits.LATC4 = 1; } while(0);
  1557                           
  1558  0320  160E               	bsf	14,4	;volatile
  1559  0321                     l214:	
  1560                           ;main.c: 130:   do { LATAbits.LATA5 = 1; } while(0);
  1561                           
  1562  0321  168C               	bsf	12,5	;volatile
  1563  0322  2B42               	goto	l248
  1564  0323                     l1436:	
  1565  0323  3008               	movlw	8
  1566  0324  0670               	xorwf	call_number@nb,w
  1567  0325  0471               	iorwf	call_number@nb+1,w
  1568  0326  1D03               	btfss	3,2
  1569  0327  2B29               	goto	u1221
  1570  0328  2B2A               	goto	u1220
  1571  0329                     u1221:	
  1572  0329  2B33               	goto	l1438
  1573  032A                     u1220:	
  1574  032A                     l218:	
  1575                           ;main.c: 134:   {;main.c: 135:   do { LATCbits.LATC3 = 0; } while(0);
  1576                           
  1577  032A  0022               	movlb	2	; select bank2
  1578  032B  118E               	bcf	14,3	;volatile
  1579  032C                     l220:	
  1580                           ;main.c: 136:   do { LATCbits.LATC7 = 0; } while(0);
  1581                           
  1582  032C  138E               	bcf	14,7	;volatile
  1583  032D                     l222:	
  1584                           ;main.c: 137:   do { LATAbits.LATA6 = 0; } while(0);
  1585                           
  1586  032D  130C               	bcf	12,6	;volatile
  1587  032E                     l224:	
  1588                           ;main.c: 138:   do { LATCbits.LATC0 = 0; } while(0);
  1589                           
  1590  032E  100E               	bcf	14,0	;volatile
  1591  032F                     l226:	
  1592                           ;main.c: 139:   do { LATCbits.LATC1 = 0; } while(0);
  1593                           
  1594  032F  108E               	bcf	14,1	;volatile
  1595  0330                     l228:	
  1596                           ;main.c: 140:   do { LATCbits.LATC4 = 0; } while(0);
  1597                           
  1598  0330  120E               	bcf	14,4	;volatile
  1599  0331                     l230:	
  1600                           ;main.c: 141:   do { LATAbits.LATA5 = 0; } while(0);
  1601                           
  1602  0331  128C               	bcf	12,5	;volatile
  1603  0332  2B42               	goto	l248
  1604  0333                     l1438:	
  1605  0333  3009               	movlw	9
  1606  0334  0670               	xorwf	call_number@nb,w
  1607  0335  0471               	iorwf	call_number@nb+1,w
  1608  0336  1D03               	btfss	3,2
  1609  0337  2B39               	goto	u1231
  1610  0338  2B3A               	goto	u1230
  1611  0339                     u1231:	
  1612  0339  2B42               	goto	l248
  1613  033A                     u1230:	
  1614  033A                     l234:	
  1615                           ;main.c: 145:   {;main.c: 146:   do { LATCbits.LATC3 = 0; } while(0);
  1616                           
  1617  033A  0022               	movlb	2	; select bank2
  1618  033B  118E               	bcf	14,3	;volatile
  1619  033C                     l236:	
  1620                           ;main.c: 147:   do { LATCbits.LATC7 = 0; } while(0);
  1621                           
  1622  033C  138E               	bcf	14,7	;volatile
  1623  033D                     l238:	
  1624                           ;main.c: 148:   do { LATAbits.LATA6 = 0; } while(0);
  1625                           
  1626  033D  130C               	bcf	12,6	;volatile
  1627  033E                     l240:	
  1628                           ;main.c: 149:   do { LATCbits.LATC0 = 0; } while(0);
  1629                           
  1630  033E  100E               	bcf	14,0	;volatile
  1631  033F                     l242:	
  1632                           ;main.c: 150:   do { LATCbits.LATC1 = 1; } while(0);
  1633                           
  1634  033F  148E               	bsf	14,1	;volatile
  1635  0340                     l244:	
  1636                           ;main.c: 151:   do { LATCbits.LATC4 = 0; } while(0);
  1637                           
  1638  0340  120E               	bcf	14,4	;volatile
  1639  0341                     l246:	
  1640                           ;main.c: 152:   do { LATAbits.LATA5 = 0; } while(0);
  1641                           
  1642  0341  128C               	bcf	12,5	;volatile
  1643  0342                     l248:	
  1644  0342  0008               	return
  1645  0343                     __end_of_call_number:	
  1646                           
  1647                           	psect	text3
  1648  0085                     __ptext3:	
  1649 ;; *************** function ___awmod *****************
  1650 ;; Defined at:
  1651 ;;		line 5 in file "C:\Program Files (x86)\Microchip\xc8\v2.10\pic\sources\c99\common\awmod.c"
  1652 ;; Parameters:    Size  Location     Type
  1653 ;;  divisor         2    0[COMMON] int 
  1654 ;;  dividend        2    2[COMMON] int 
  1655 ;; Auto vars:     Size  Location     Type
  1656 ;;  sign            1    6[COMMON] unsigned char 
  1657 ;;  counter         1    5[COMMON] unsigned char 
  1658 ;; Return value:  Size  Location     Type
  1659 ;;                  2    0[COMMON] int 
  1660 ;; Registers used:
  1661 ;;		wreg, status,2, status,0
  1662 ;; Tracked objects:
  1663 ;;		On entry : 0/0
  1664 ;;		On exit  : 0/0
  1665 ;;		Unchanged: 0/0
  1666 ;; Data sizes:     COMMON   BANK0   BANK1   BANK2   BANK3   BANK4   BANK5   BANK6   BANK7   BANK8   BANK9  BANK10  BANK1
      +1  BANK12
  1667 ;;      Params:         4       0       0       0       0       0       0       0       0       0       0       0       
      +0       0
  1668 ;;      Locals:         2       0       0       0       0       0       0       0       0       0       0       0       
      +0       0
  1669 ;;      Temps:          1       0       0       0       0       0       0       0       0       0       0       0       
      +0       0
  1670 ;;      Totals:         7       0       0       0       0       0       0       0       0       0       0       0       
      +0       0
  1671 ;;Total ram usage:        7 bytes
  1672 ;; Hardware stack levels used:    1
  1673 ;; This function calls:
  1674 ;;		Nothing
  1675 ;; This function is called by:
  1676 ;;		_ecran
  1677 ;; This function uses a non-reentrant model
  1678 ;;
  1679                           
  1680                           
  1681                           ;psect for function ___awmod
  1682  0085                     ___awmod:	
  1683  0085                     l1484:	
  1684                           ;incstack = 0
  1685                           ; Regs used in ___awmod: [wreg+status,2+status,0]
  1686                           
  1687  0085  01F6               	clrf	___awmod@sign
  1688  0086                     l1486:	
  1689  0086  1FF3               	btfss	___awmod@dividend+1,7
  1690  0087  2889               	goto	u1341
  1691  0088  288A               	goto	u1340
  1692  0089                     u1341:	
  1693  0089  2891               	goto	l1492
  1694  008A                     u1340:	
  1695  008A                     l1488:	
  1696  008A  09F2               	comf	___awmod@dividend,f
  1697  008B  09F3               	comf	___awmod@dividend+1,f
  1698  008C  0AF2               	incf	___awmod@dividend,f
  1699  008D  1903               	skipnz
  1700  008E  0AF3               	incf	___awmod@dividend+1,f
  1701  008F                     l1490:	
  1702  008F  01F6               	clrf	___awmod@sign
  1703  0090  0AF6               	incf	___awmod@sign,f
  1704  0091                     l1492:	
  1705  0091  1FF1               	btfss	___awmod@divisor+1,7
  1706  0092  2894               	goto	u1351
  1707  0093  2895               	goto	u1350
  1708  0094                     u1351:	
  1709  0094  289A               	goto	l1496
  1710  0095                     u1350:	
  1711  0095                     l1494:	
  1712  0095  09F0               	comf	___awmod@divisor,f
  1713  0096  09F1               	comf	___awmod@divisor+1,f
  1714  0097  0AF0               	incf	___awmod@divisor,f
  1715  0098  1903               	skipnz
  1716  0099  0AF1               	incf	___awmod@divisor+1,f
  1717  009A                     l1496:	
  1718  009A  0870               	movf	___awmod@divisor,w
  1719  009B  0471               	iorwf	___awmod@divisor+1,w
  1720  009C  1903               	btfsc	3,2
  1721  009D  289F               	goto	u1361
  1722  009E  28A0               	goto	u1360
  1723  009F                     u1361:	
  1724  009F  28C9               	goto	l1514
  1725  00A0                     u1360:	
  1726  00A0                     l1498:	
  1727  00A0  01F5               	clrf	___awmod@counter
  1728  00A1  0AF5               	incf	___awmod@counter,f
  1729  00A2  28AC               	goto	l1504
  1730  00A3                     l1500:	
  1731  00A3  3001               	movlw	1
  1732  00A4                     u1375:	
  1733  00A4  35F0               	lslf	___awmod@divisor,f
  1734  00A5  0DF1               	rlf	___awmod@divisor+1,f
  1735  00A6  0B89               	decfsz	9,f
  1736  00A7  28A4               	goto	u1375
  1737  00A8                     l1502:	
  1738  00A8  3001               	movlw	1
  1739  00A9  00F4               	movwf	??___awmod
  1740  00AA  0874               	movf	??___awmod,w
  1741  00AB  07F5               	addwf	___awmod@counter,f
  1742  00AC                     l1504:	
  1743  00AC  1FF1               	btfss	___awmod@divisor+1,7
  1744  00AD  28AF               	goto	u1381
  1745  00AE  28B0               	goto	u1380
  1746  00AF                     u1381:	
  1747  00AF  28A3               	goto	l1500
  1748  00B0                     u1380:	
  1749  00B0                     l1506:	
  1750  00B0  0871               	movf	___awmod@divisor+1,w
  1751  00B1  0273               	subwf	___awmod@dividend+1,w
  1752  00B2  1D03               	skipz
  1753  00B3  28B6               	goto	u1395
  1754  00B4  0870               	movf	___awmod@divisor,w
  1755  00B5  0272               	subwf	___awmod@dividend,w
  1756  00B6                     u1395:	
  1757  00B6  1C03               	skipc
  1758  00B7  28B9               	goto	u1391
  1759  00B8  28BA               	goto	u1390
  1760  00B9                     u1391:	
  1761  00B9  28BE               	goto	l1510
  1762  00BA                     u1390:	
  1763  00BA                     l1508:	
  1764  00BA  0870               	movf	___awmod@divisor,w
  1765  00BB  02F2               	subwf	___awmod@dividend,f
  1766  00BC  0871               	movf	___awmod@divisor+1,w
  1767  00BD  3BF3               	subwfb	___awmod@dividend+1,f
  1768  00BE                     l1510:	
  1769  00BE  3001               	movlw	1
  1770  00BF                     u1405:	
  1771  00BF  36F1               	lsrf	___awmod@divisor+1,f
  1772  00C0  0CF0               	rrf	___awmod@divisor,f
  1773  00C1  0B89               	decfsz	9,f
  1774  00C2  28BF               	goto	u1405
  1775  00C3                     l1512:	
  1776  00C3  3001               	movlw	1
  1777  00C4  02F5               	subwf	___awmod@counter,f
  1778  00C5  1D03               	btfss	3,2
  1779  00C6  28C8               	goto	u1411
  1780  00C7  28C9               	goto	u1410
  1781  00C8                     u1411:	
  1782  00C8  28B0               	goto	l1506
  1783  00C9                     u1410:	
  1784  00C9                     l1514:	
  1785  00C9  0876               	movf	___awmod@sign,w
  1786  00CA  1903               	btfsc	3,2
  1787  00CB  28CD               	goto	u1421
  1788  00CC  28CE               	goto	u1420
  1789  00CD                     u1421:	
  1790  00CD  28D3               	goto	l1518
  1791  00CE                     u1420:	
  1792  00CE                     l1516:	
  1793  00CE  09F2               	comf	___awmod@dividend,f
  1794  00CF  09F3               	comf	___awmod@dividend+1,f
  1795  00D0  0AF2               	incf	___awmod@dividend,f
  1796  00D1  1903               	skipnz
  1797  00D2  0AF3               	incf	___awmod@dividend+1,f
  1798  00D3                     l1518:	
  1799  00D3  0873               	movf	___awmod@dividend+1,w
  1800  00D4  00F1               	movwf	?___awmod+1
  1801  00D5  0872               	movf	___awmod@dividend,w
  1802  00D6  00F0               	movwf	?___awmod
  1803  00D7                     l530:	
  1804  00D7  0008               	return
  1805  00D8                     __end_of___awmod:	
  1806                           
  1807                           	psect	text4
  1808  00D8                     __ptext4:	
  1809 ;; *************** function ___awdiv *****************
  1810 ;; Defined at:
  1811 ;;		line 5 in file "C:\Program Files (x86)\Microchip\xc8\v2.10\pic\sources\c99\common\awdiv.c"
  1812 ;; Parameters:    Size  Location     Type
  1813 ;;  divisor         2    7[COMMON] int 
  1814 ;;  dividend        2    9[COMMON] int 
  1815 ;; Auto vars:     Size  Location     Type
  1816 ;;  quotient        2    2[BANK0 ] int 
  1817 ;;  sign            1    1[BANK0 ] unsigned char 
  1818 ;;  counter         1    0[BANK0 ] unsigned char 
  1819 ;; Return value:  Size  Location     Type
  1820 ;;                  2    7[COMMON] int 
  1821 ;; Registers used:
  1822 ;;		wreg, status,2, status,0
  1823 ;; Tracked objects:
  1824 ;;		On entry : 0/0
  1825 ;;		On exit  : 0/0
  1826 ;;		Unchanged: 0/0
  1827 ;; Data sizes:     COMMON   BANK0   BANK1   BANK2   BANK3   BANK4   BANK5   BANK6   BANK7   BANK8   BANK9  BANK10  BANK1
      +1  BANK12
  1828 ;;      Params:         4       0       0       0       0       0       0       0       0       0       0       0       
      +0       0
  1829 ;;      Locals:         0       4       0       0       0       0       0       0       0       0       0       0       
      +0       0
  1830 ;;      Temps:          1       0       0       0       0       0       0       0       0       0       0       0       
      +0       0
  1831 ;;      Totals:         5       4       0       0       0       0       0       0       0       0       0       0       
      +0       0
  1832 ;;Total ram usage:        9 bytes
  1833 ;; Hardware stack levels used:    1
  1834 ;; This function calls:
  1835 ;;		Nothing
  1836 ;; This function is called by:
  1837 ;;		_ecran
  1838 ;; This function uses a non-reentrant model
  1839 ;;
  1840                           
  1841                           
  1842                           ;psect for function ___awdiv
  1843  00D8                     ___awdiv:	
  1844  00D8                     l1440:	
  1845                           ;incstack = 0
  1846                           ; Regs used in ___awdiv: [wreg+status,2+status,0]
  1847                           
  1848  00D8  0020               	movlb	0	; select bank0
  1849  00D9  01A1               	clrf	___awdiv@sign
  1850  00DA                     l1442:	
  1851  00DA  1FF8               	btfss	___awdiv@divisor+1,7
  1852  00DB  28DD               	goto	u1241
  1853  00DC  28DE               	goto	u1240
  1854  00DD                     u1241:	
  1855  00DD  28E5               	goto	l1448
  1856  00DE                     u1240:	
  1857  00DE                     l1444:	
  1858  00DE  09F7               	comf	___awdiv@divisor,f
  1859  00DF  09F8               	comf	___awdiv@divisor+1,f
  1860  00E0  0AF7               	incf	___awdiv@divisor,f
  1861  00E1  1903               	skipnz
  1862  00E2  0AF8               	incf	___awdiv@divisor+1,f
  1863  00E3                     l1446:	
  1864  00E3  01A1               	clrf	___awdiv@sign
  1865  00E4  0AA1               	incf	___awdiv@sign,f
  1866  00E5                     l1448:	
  1867  00E5  1FFA               	btfss	___awdiv@dividend+1,7
  1868  00E6  28E8               	goto	u1251
  1869  00E7  28E9               	goto	u1250
  1870  00E8                     u1251:	
  1871  00E8  28F2               	goto	l1454
  1872  00E9                     u1250:	
  1873  00E9                     l1450:	
  1874  00E9  09F9               	comf	___awdiv@dividend,f
  1875  00EA  09FA               	comf	___awdiv@dividend+1,f
  1876  00EB  0AF9               	incf	___awdiv@dividend,f
  1877  00EC  1903               	skipnz
  1878  00ED  0AFA               	incf	___awdiv@dividend+1,f
  1879  00EE                     l1452:	
  1880  00EE  3001               	movlw	1
  1881  00EF  00FB               	movwf	??___awdiv
  1882  00F0  087B               	movf	??___awdiv,w
  1883  00F1  06A1               	xorwf	___awdiv@sign,f
  1884  00F2                     l1454:	
  1885  00F2  01A2               	clrf	___awdiv@quotient
  1886  00F3  01A3               	clrf	___awdiv@quotient+1
  1887  00F4                     l1456:	
  1888  00F4  0877               	movf	___awdiv@divisor,w
  1889  00F5  0478               	iorwf	___awdiv@divisor+1,w
  1890  00F6  1903               	btfsc	3,2
  1891  00F7  28F9               	goto	u1261
  1892  00F8  28FA               	goto	u1260
  1893  00F9                     u1261:	
  1894  00F9  2929               	goto	l1476
  1895  00FA                     u1260:	
  1896  00FA                     l1458:	
  1897  00FA  01A0               	clrf	___awdiv@counter
  1898  00FB  0AA0               	incf	___awdiv@counter,f
  1899  00FC  2906               	goto	l1464
  1900  00FD                     l1460:	
  1901  00FD  3001               	movlw	1
  1902  00FE                     u1275:	
  1903  00FE  35F7               	lslf	___awdiv@divisor,f
  1904  00FF  0DF8               	rlf	___awdiv@divisor+1,f
  1905  0100  0B89               	decfsz	9,f
  1906  0101  28FE               	goto	u1275
  1907  0102                     l1462:	
  1908  0102  3001               	movlw	1
  1909  0103  00FB               	movwf	??___awdiv
  1910  0104  087B               	movf	??___awdiv,w
  1911  0105  07A0               	addwf	___awdiv@counter,f
  1912  0106                     l1464:	
  1913  0106  1FF8               	btfss	___awdiv@divisor+1,7
  1914  0107  2909               	goto	u1281
  1915  0108  290A               	goto	u1280
  1916  0109                     u1281:	
  1917  0109  28FD               	goto	l1460
  1918  010A                     u1280:	
  1919  010A                     l1466:	
  1920  010A  3001               	movlw	1
  1921  010B                     u1295:	
  1922  010B  35A2               	lslf	___awdiv@quotient,f
  1923  010C  0DA3               	rlf	___awdiv@quotient+1,f
  1924  010D  0B89               	decfsz	9,f
  1925  010E  290B               	goto	u1295
  1926  010F  0878               	movf	___awdiv@divisor+1,w
  1927  0110  027A               	subwf	___awdiv@dividend+1,w
  1928  0111  1D03               	skipz
  1929  0112  2915               	goto	u1305
  1930  0113  0877               	movf	___awdiv@divisor,w
  1931  0114  0279               	subwf	___awdiv@dividend,w
  1932  0115                     u1305:	
  1933  0115  1C03               	skipc
  1934  0116  2918               	goto	u1301
  1935  0117  2919               	goto	u1300
  1936  0118                     u1301:	
  1937  0118  291E               	goto	l1472
  1938  0119                     u1300:	
  1939  0119                     l1468:	
  1940  0119  0877               	movf	___awdiv@divisor,w
  1941  011A  02F9               	subwf	___awdiv@dividend,f
  1942  011B  0878               	movf	___awdiv@divisor+1,w
  1943  011C  3BFA               	subwfb	___awdiv@dividend+1,f
  1944  011D                     l1470:	
  1945  011D  1422               	bsf	___awdiv@quotient,0
  1946  011E                     l1472:	
  1947  011E  3001               	movlw	1
  1948  011F                     u1315:	
  1949  011F  36F8               	lsrf	___awdiv@divisor+1,f
  1950  0120  0CF7               	rrf	___awdiv@divisor,f
  1951  0121  0B89               	decfsz	9,f
  1952  0122  291F               	goto	u1315
  1953  0123                     l1474:	
  1954  0123  3001               	movlw	1
  1955  0124  02A0               	subwf	___awdiv@counter,f
  1956  0125  1D03               	btfss	3,2
  1957  0126  2928               	goto	u1321
  1958  0127  2929               	goto	u1320
  1959  0128                     u1321:	
  1960  0128  290A               	goto	l1466
  1961  0129                     u1320:	
  1962  0129                     l1476:	
  1963  0129  0821               	movf	___awdiv@sign,w
  1964  012A  1903               	btfsc	3,2
  1965  012B  292D               	goto	u1331
  1966  012C  292E               	goto	u1330
  1967  012D                     u1331:	
  1968  012D  2933               	goto	l1480
  1969  012E                     u1330:	
  1970  012E                     l1478:	
  1971  012E  09A2               	comf	___awdiv@quotient,f
  1972  012F  09A3               	comf	___awdiv@quotient+1,f
  1973  0130  0AA2               	incf	___awdiv@quotient,f
  1974  0131  1903               	skipnz
  1975  0132  0AA3               	incf	___awdiv@quotient+1,f
  1976  0133                     l1480:	
  1977  0133  0823               	movf	___awdiv@quotient+1,w
  1978  0134  00F8               	movwf	?___awdiv+1
  1979  0135  0822               	movf	___awdiv@quotient,w
  1980  0136  00F7               	movwf	?___awdiv
  1981  0137                     l517:	
  1982  0137  0008               	return
  1983  0138                     __end_of___awdiv:	
  1984                           
  1985                           	psect	text5
  1986  0343                     __ptext5:	
  1987 ;; *************** function ___xxtofl *****************
  1988 ;; Defined at:
  1989 ;;		line 10 in file "C:\Program Files (x86)\Microchip\xc8\v2.10\pic\sources\c99\common\xxtofl.c"
  1990 ;; Parameters:    Size  Location     Type
  1991 ;;  sign            1    wreg     unsigned char 
  1992 ;;  val             4    0[COMMON] long 
  1993 ;; Auto vars:     Size  Location     Type
  1994 ;;  sign            1    8[COMMON] unsigned char 
  1995 ;;  arg             4   10[COMMON] unsigned long 
  1996 ;;  exp             1    9[COMMON] unsigned char 
  1997 ;; Return value:  Size  Location     Type
  1998 ;;                  4    0[COMMON] unsigned char 
  1999 ;; Registers used:
  2000 ;;		wreg, status,2, status,0
  2001 ;; Tracked objects:
  2002 ;;		On entry : 0/0
  2003 ;;		On exit  : 0/0
  2004 ;;		Unchanged: 0/0
  2005 ;; Data sizes:     COMMON   BANK0   BANK1   BANK2   BANK3   BANK4   BANK5   BANK6   BANK7   BANK8   BANK9  BANK10  BANK1
      +1  BANK12
  2006 ;;      Params:         4       0       0       0       0       0       0       0       0       0       0       0       
      +0       0
  2007 ;;      Locals:         6       0       0       0       0       0       0       0       0       0       0       0       
      +0       0
  2008 ;;      Temps:          4       0       0       0       0       0       0       0       0       0       0       0       
      +0       0
  2009 ;;      Totals:        14       0       0       0       0       0       0       0       0       0       0       0       
      +0       0
  2010 ;;Total ram usage:       14 bytes
  2011 ;; Hardware stack levels used:    1
  2012 ;; This function calls:
  2013 ;;		Nothing
  2014 ;; This function is called by:
  2015 ;;		_main
  2016 ;; This function uses a non-reentrant model
  2017 ;;
  2018                           
  2019                           
  2020                           ;psect for function ___xxtofl
  2021  0343                     ___xxtofl:	
  2022                           
  2023                           ;incstack = 0
  2024                           ; Regs used in ___xxtofl: [wreg+status,2+status,0]
  2025                           ;___xxtofl@sign stored from wreg
  2026  0343  00F8               	movwf	___xxtofl@sign
  2027  0344                     l1892:	
  2028  0344  0878               	movf	___xxtofl@sign,w
  2029  0345  1903               	btfsc	3,2
  2030  0346  2B48               	goto	u2121
  2031  0347  2B49               	goto	u2120
  2032  0348                     u2121:	
  2033  0348  2B5D               	goto	l1898
  2034  0349                     u2120:	
  2035  0349                     l1894:	
  2036  0349  1FF3               	btfss	___xxtofl@val+3,7
  2037  034A  2B4C               	goto	u2131
  2038  034B  2B4D               	goto	u2130
  2039  034C                     u2131:	
  2040  034C  2B5D               	goto	l1898
  2041  034D                     u2130:	
  2042  034D                     l1896:	
  2043  034D  0970               	comf	___xxtofl@val,w
  2044  034E  00FA               	movwf	___xxtofl@arg
  2045  034F  0971               	comf	___xxtofl@val+1,w
  2046  0350  00FB               	movwf	___xxtofl@arg+1
  2047  0351  0972               	comf	___xxtofl@val+2,w
  2048  0352  00FC               	movwf	___xxtofl@arg+2
  2049  0353  0973               	comf	___xxtofl@val+3,w
  2050  0354  00FD               	movwf	___xxtofl@arg+3
  2051  0355  0AFA               	incf	___xxtofl@arg,f
  2052  0356  1903               	skipnz
  2053  0357  0AFB               	incf	___xxtofl@arg+1,f
  2054  0358  1903               	skipnz
  2055  0359  0AFC               	incf	___xxtofl@arg+2,f
  2056  035A  1903               	skipnz
  2057  035B  0AFD               	incf	___xxtofl@arg+3,f
  2058  035C  2B65               	goto	l799
  2059  035D                     l1898:	
  2060  035D  0873               	movf	___xxtofl@val+3,w
  2061  035E  00FD               	movwf	___xxtofl@arg+3
  2062  035F  0872               	movf	___xxtofl@val+2,w
  2063  0360  00FC               	movwf	___xxtofl@arg+2
  2064  0361  0871               	movf	___xxtofl@val+1,w
  2065  0362  00FB               	movwf	___xxtofl@arg+1
  2066  0363  0870               	movf	___xxtofl@val,w
  2067  0364  00FA               	movwf	___xxtofl@arg
  2068  0365                     l799:	
  2069  0365  0873               	movf	___xxtofl@val+3,w
  2070  0366  0472               	iorwf	___xxtofl@val+2,w
  2071  0367  0471               	iorwf	___xxtofl@val+1,w
  2072  0368  0470               	iorwf	___xxtofl@val,w
  2073  0369  1D03               	skipz
  2074  036A  2B6C               	goto	u2141
  2075  036B  2B6D               	goto	u2140
  2076  036C                     u2141:	
  2077  036C  2B76               	goto	l1904
  2078  036D                     u2140:	
  2079  036D                     l1900:	
  2080  036D  3000               	movlw	0
  2081  036E  00F3               	movwf	?___xxtofl+3
  2082  036F  3000               	movlw	0
  2083  0370  00F2               	movwf	?___xxtofl+2
  2084  0371  3000               	movlw	0
  2085  0372  00F1               	movwf	?___xxtofl+1
  2086  0373  3000               	movlw	0
  2087  0374  00F0               	movwf	?___xxtofl
  2088  0375  2BEE               	goto	l801
  2089  0376                     l1904:	
  2090  0376  3096               	movlw	150
  2091  0377  00F4               	movwf	??___xxtofl
  2092  0378  0874               	movf	??___xxtofl,w
  2093  0379  00F9               	movwf	___xxtofl@exp
  2094  037A  2B86               	goto	l1908
  2095  037B                     l1906:	
  2096  037B  3001               	movlw	1
  2097  037C  00F4               	movwf	??___xxtofl
  2098  037D  0874               	movf	??___xxtofl,w
  2099  037E  07F9               	addwf	___xxtofl@exp,f
  2100  037F  3001               	movlw	1
  2101  0380                     u2155:	
  2102  0380  36FD               	lsrf	___xxtofl@arg+3,f
  2103  0381  0CFC               	rrf	___xxtofl@arg+2,f
  2104  0382  0CFB               	rrf	___xxtofl@arg+1,f
  2105  0383  0CFA               	rrf	___xxtofl@arg,f
  2106  0384  0B89               	decfsz	9,f
  2107  0385  2B80               	goto	u2155
  2108  0386                     l1908:	
  2109  0386  30FE               	movlw	254
  2110  0387  057D               	andwf	___xxtofl@arg+3,w
  2111  0388  1D03               	btfss	3,2
  2112  0389  2B8B               	goto	u2161
  2113  038A  2B8C               	goto	u2160
  2114  038B                     u2161:	
  2115  038B  2B7B               	goto	l1906
  2116  038C                     u2160:	
  2117  038C  2BA0               	goto	l805
  2118  038D                     l1910:	
  2119  038D  3001               	movlw	1
  2120  038E  00F4               	movwf	??___xxtofl
  2121  038F  0874               	movf	??___xxtofl,w
  2122  0390  07F9               	addwf	___xxtofl@exp,f
  2123  0391                     l1912:	
  2124  0391  3001               	movlw	1
  2125  0392  07FA               	addwf	___xxtofl@arg,f
  2126  0393  3000               	movlw	0
  2127  0394  3DFB               	addwfc	___xxtofl@arg+1,f
  2128  0395  3000               	movlw	0
  2129  0396  3DFC               	addwfc	___xxtofl@arg+2,f
  2130  0397  3000               	movlw	0
  2131  0398  3DFD               	addwfc	___xxtofl@arg+3,f
  2132  0399                     l1914:	
  2133  0399  3001               	movlw	1
  2134  039A                     u2175:	
  2135  039A  36FD               	lsrf	___xxtofl@arg+3,f
  2136  039B  0CFC               	rrf	___xxtofl@arg+2,f
  2137  039C  0CFB               	rrf	___xxtofl@arg+1,f
  2138  039D  0CFA               	rrf	___xxtofl@arg,f
  2139  039E  0B89               	decfsz	9,f
  2140  039F  2B9A               	goto	u2175
  2141  03A0                     l805:	
  2142  03A0  30FF               	movlw	255
  2143  03A1  057D               	andwf	___xxtofl@arg+3,w
  2144  03A2  1D03               	btfss	3,2
  2145  03A3  2BA5               	goto	u2181
  2146  03A4  2BA6               	goto	u2180
  2147  03A5                     u2181:	
  2148  03A5  2B8D               	goto	l1910
  2149  03A6                     u2180:	
  2150  03A6  2BB0               	goto	l1918
  2151  03A7                     l1916:	
  2152  03A7  3001               	movlw	1
  2153  03A8  02F9               	subwf	___xxtofl@exp,f
  2154  03A9  3001               	movlw	1
  2155  03AA                     u2195:	
  2156  03AA  35FA               	lslf	___xxtofl@arg,f
  2157  03AB  0DFB               	rlf	___xxtofl@arg+1,f
  2158  03AC  0DFC               	rlf	___xxtofl@arg+2,f
  2159  03AD  0DFD               	rlf	___xxtofl@arg+3,f
  2160  03AE  0B89               	decfsz	9,f
  2161  03AF  2BAA               	goto	u2195
  2162  03B0                     l1918:	
  2163  03B0  1BFC               	btfsc	___xxtofl@arg+2,7
  2164  03B1  2BB3               	goto	u2201
  2165  03B2  2BB4               	goto	u2200
  2166  03B3                     u2201:	
  2167  03B3  2BBA               	goto	l812
  2168  03B4                     u2200:	
  2169  03B4                     l1920:	
  2170  03B4  3002               	movlw	2
  2171  03B5  0279               	subwf	___xxtofl@exp,w
  2172  03B6  1803               	skipnc
  2173  03B7  2BB9               	goto	u2211
  2174  03B8  2BBA               	goto	u2210
  2175  03B9                     u2211:	
  2176  03B9  2BA7               	goto	l1916
  2177  03BA                     u2210:	
  2178  03BA                     l812:	
  2179  03BA  1879               	btfsc	___xxtofl@exp,0
  2180  03BB  2BBD               	goto	u2221
  2181  03BC  2BBE               	goto	u2220
  2182  03BD                     u2221:	
  2183  03BD  2BC6               	goto	l813
  2184  03BE                     u2220:	
  2185  03BE                     l1922:	
  2186  03BE  30FF               	movlw	255
  2187  03BF  05FA               	andwf	___xxtofl@arg,f
  2188  03C0  30FF               	movlw	255
  2189  03C1  05FB               	andwf	___xxtofl@arg+1,f
  2190  03C2  307F               	movlw	127
  2191  03C3  05FC               	andwf	___xxtofl@arg+2,f
  2192  03C4  30FF               	movlw	255
  2193  03C5  05FD               	andwf	___xxtofl@arg+3,f
  2194  03C6                     l813:	
  2195  03C6  1003               	clrc
  2196  03C7  0CF9               	rrf	___xxtofl@exp,f
  2197  03C8                     l1924:	
  2198  03C8  0879               	movf	___xxtofl@exp,w
  2199  03C9  00F4               	movwf	??___xxtofl
  2200  03CA  01F5               	clrf	??___xxtofl+1
  2201  03CB  01F6               	clrf	??___xxtofl+2
  2202  03CC  01F7               	clrf	??___xxtofl+3
  2203  03CD  3018               	movlw	24
  2204  03CE                     u2235:	
  2205  03CE  35F4               	lslf	??___xxtofl,f
  2206  03CF  0DF5               	rlf	??___xxtofl+1,f
  2207  03D0  0DF6               	rlf	??___xxtofl+2,f
  2208  03D1  0DF7               	rlf	??___xxtofl+3,f
  2209  03D2                     u2230:	
  2210  03D2  0B89               	decfsz	9,f
  2211  03D3  2BCE               	goto	u2235
  2212  03D4  0874               	movf	??___xxtofl,w
  2213  03D5  04FA               	iorwf	___xxtofl@arg,f
  2214  03D6  0875               	movf	??___xxtofl+1,w
  2215  03D7  04FB               	iorwf	___xxtofl@arg+1,f
  2216  03D8  0876               	movf	??___xxtofl+2,w
  2217  03D9  04FC               	iorwf	___xxtofl@arg+2,f
  2218  03DA  0877               	movf	??___xxtofl+3,w
  2219  03DB  04FD               	iorwf	___xxtofl@arg+3,f
  2220  03DC                     l1926:	
  2221  03DC  0878               	movf	___xxtofl@sign,w
  2222  03DD  1903               	btfsc	3,2
  2223  03DE  2BE0               	goto	u2241
  2224  03DF  2BE1               	goto	u2240
  2225  03E0                     u2241:	
  2226  03E0  2BE6               	goto	l1932
  2227  03E1                     u2240:	
  2228  03E1                     l1928:	
  2229  03E1  1FF3               	btfss	___xxtofl@val+3,7
  2230  03E2  2BE4               	goto	u2251
  2231  03E3  2BE5               	goto	u2250
  2232  03E4                     u2251:	
  2233  03E4  2BE6               	goto	l1932
  2234  03E5                     u2250:	
  2235  03E5                     l1930:	
  2236  03E5  17FD               	bsf	___xxtofl@arg+3,7
  2237  03E6                     l1932:	
  2238  03E6  087D               	movf	___xxtofl@arg+3,w
  2239  03E7  00F3               	movwf	?___xxtofl+3
  2240  03E8  087C               	movf	___xxtofl@arg+2,w
  2241  03E9  00F2               	movwf	?___xxtofl+2
  2242  03EA  087B               	movf	___xxtofl@arg+1,w
  2243  03EB  00F1               	movwf	?___xxtofl+1
  2244  03EC  087A               	movf	___xxtofl@arg,w
  2245  03ED  00F0               	movwf	?___xxtofl
  2246  03EE                     l801:	
  2247  03EE  0008               	return
  2248  03EF                     __end_of___xxtofl:	
  2249                           
  2250                           	psect	text6
  2251  01AA                     __ptext6:	
  2252 ;; *************** function ___fltol *****************
  2253 ;; Defined at:
  2254 ;;		line 43 in file "C:\Program Files (x86)\Microchip\xc8\v2.10\pic\sources\c99\common\fltol.c"
  2255 ;; Parameters:    Size  Location     Type
  2256 ;;  f1              4   52[BANK0 ] unsigned char 
  2257 ;; Auto vars:     Size  Location     Type
  2258 ;;  exp1            1   62[BANK0 ] unsigned char 
  2259 ;;  sign1           1   61[BANK0 ] unsigned char 
  2260 ;; Return value:  Size  Location     Type
  2261 ;;                  4   52[BANK0 ] long 
  2262 ;; Registers used:
  2263 ;;		wreg, status,2, status,0
  2264 ;; Tracked objects:
  2265 ;;		On entry : 0/0
  2266 ;;		On exit  : 0/0
  2267 ;;		Unchanged: 0/0
  2268 ;; Data sizes:     COMMON   BANK0   BANK1   BANK2   BANK3   BANK4   BANK5   BANK6   BANK7   BANK8   BANK9  BANK10  BANK1
      +1  BANK12
  2269 ;;      Params:         0       4       0       0       0       0       0       0       0       0       0       0       
      +0       0
  2270 ;;      Locals:         0       2       0       0       0       0       0       0       0       0       0       0       
      +0       0
  2271 ;;      Temps:          0       5       0       0       0       0       0       0       0       0       0       0       
      +0       0
  2272 ;;      Totals:         0      11       0       0       0       0       0       0       0       0       0       0       
      +0       0
  2273 ;;Total ram usage:       11 bytes
  2274 ;; Hardware stack levels used:    1
  2275 ;; This function calls:
  2276 ;;		Nothing
  2277 ;; This function is called by:
  2278 ;;		_main
  2279 ;; This function uses a non-reentrant model
  2280 ;;
  2281                           
  2282                           
  2283                           ;psect for function ___fltol
  2284  01AA                     ___fltol:	
  2285  01AA                     l1576:	
  2286                           ;incstack = 0
  2287                           ; Regs used in ___fltol: [wreg+status,2+status,0]
  2288                           
  2289  01AA  1003               	clrc
  2290  01AB  0020               	movlb	0	; select bank0
  2291  01AC  0D56               	rlf	___fltol@f1+2,w
  2292  01AD  0D57               	rlf	___fltol@f1+3,w
  2293  01AE  00D8               	movwf	??___fltol
  2294  01AF  0858               	movf	??___fltol,w
  2295  01B0  00DE               	movwf	___fltol@exp1
  2296  01B1  085E               	movf	___fltol@exp1,w
  2297  01B2  1D03               	btfss	3,2
  2298  01B3  29B5               	goto	u1471
  2299  01B4  29B6               	goto	u1470
  2300  01B5                     u1471:	
  2301  01B5  29BF               	goto	l1582
  2302  01B6                     u1470:	
  2303  01B6                     l1578:	
  2304  01B6  3000               	movlw	0
  2305  01B7  00D7               	movwf	?___fltol+3
  2306  01B8  3000               	movlw	0
  2307  01B9  00D6               	movwf	?___fltol+2
  2308  01BA  3000               	movlw	0
  2309  01BB  00D5               	movwf	?___fltol+1
  2310  01BC  3000               	movlw	0
  2311  01BD  00D4               	movwf	?___fltol
  2312  01BE  2A1E               	goto	l558
  2313  01BF                     l1582:	
  2314  01BF  0854               	movf	___fltol@f1,w
  2315  01C0  00D8               	movwf	??___fltol
  2316  01C1  0855               	movf	___fltol@f1+1,w
  2317  01C2  00D9               	movwf	??___fltol+1
  2318  01C3  0856               	movf	___fltol@f1+2,w
  2319  01C4  00DA               	movwf	??___fltol+2
  2320  01C5  0857               	movf	___fltol@f1+3,w
  2321  01C6  00DB               	movwf	??___fltol+3
  2322  01C7  301F               	movlw	31
  2323  01C8                     u1485:	
  2324  01C8  36DB               	lsrf	??___fltol+3,f
  2325  01C9  0CDA               	rrf	??___fltol+2,f
  2326  01CA  0CD9               	rrf	??___fltol+1,f
  2327  01CB  0CD8               	rrf	??___fltol,f
  2328  01CC                     u1480:	
  2329  01CC  0B89               	decfsz	9,f
  2330  01CD  29C8               	goto	u1485
  2331  01CE  0858               	movf	??___fltol,w
  2332  01CF  00DC               	movwf	??___fltol+4
  2333  01D0  085C               	movf	??___fltol+4,w
  2334  01D1  00DD               	movwf	___fltol@sign1
  2335  01D2                     l1584:	
  2336  01D2  17D6               	bsf	___fltol@f1+2,7
  2337  01D3                     l1586:	
  2338  01D3  30FF               	movlw	255
  2339  01D4  05D4               	andwf	___fltol@f1,f
  2340  01D5  30FF               	movlw	255
  2341  01D6  05D5               	andwf	___fltol@f1+1,f
  2342  01D7  30FF               	movlw	255
  2343  01D8  05D6               	andwf	___fltol@f1+2,f
  2344  01D9  3000               	movlw	0
  2345  01DA  05D7               	andwf	___fltol@f1+3,f
  2346  01DB                     l1588:	
  2347  01DB  3096               	movlw	150
  2348  01DC  02DE               	subwf	___fltol@exp1,f
  2349  01DD                     l1590:	
  2350  01DD  1FDE               	btfss	___fltol@exp1,7
  2351  01DE  29E0               	goto	u1491
  2352  01DF  29E1               	goto	u1490
  2353  01E0                     u1491:	
  2354  01E0  29F9               	goto	l1600
  2355  01E1                     u1490:	
  2356  01E1                     l1592:	
  2357  01E1  085E               	movf	___fltol@exp1,w
  2358  01E2  3A80               	xorlw	128
  2359  01E3  3E97               	addlw	151
  2360  01E4  1803               	skipnc
  2361  01E5  29E7               	goto	u1501
  2362  01E6  29E8               	goto	u1500
  2363  01E7                     u1501:	
  2364  01E7  29E9               	goto	l1598
  2365  01E8                     u1500:	
  2366  01E8  29B6               	goto	l1578
  2367  01E9                     l1598:	
  2368  01E9  3001               	movlw	1
  2369  01EA                     u1515:	
  2370  01EA  36D7               	lsrf	___fltol@f1+3,f
  2371  01EB  0CD6               	rrf	___fltol@f1+2,f
  2372  01EC  0CD5               	rrf	___fltol@f1+1,f
  2373  01ED  0CD4               	rrf	___fltol@f1,f
  2374  01EE  0B89               	decfsz	9,f
  2375  01EF  29EA               	goto	u1515
  2376  01F0  3001               	movlw	1
  2377  01F1  00D8               	movwf	??___fltol
  2378  01F2  0858               	movf	??___fltol,w
  2379  01F3  07DE               	addwf	___fltol@exp1,f
  2380  01F4  1D03               	btfss	3,2
  2381  01F5  29F7               	goto	u1521
  2382  01F6  29F8               	goto	u1520
  2383  01F7                     u1521:	
  2384  01F7  29E9               	goto	l1598
  2385  01F8                     u1520:	
  2386  01F8  2A0E               	goto	l1608
  2387  01F9                     l1600:	
  2388  01F9  3020               	movlw	32
  2389  01FA  025E               	subwf	___fltol@exp1,w
  2390  01FB  1C03               	skipc
  2391  01FC  29FE               	goto	u1531
  2392  01FD  29FF               	goto	u1530
  2393  01FE                     u1531:	
  2394  01FE  2A09               	goto	l565
  2395  01FF                     u1530:	
  2396  01FF  29B6               	goto	l1578
  2397  0200                     l1606:	
  2398  0200  3001               	movlw	1
  2399  0201                     u1545:	
  2400  0201  35D4               	lslf	___fltol@f1,f
  2401  0202  0DD5               	rlf	___fltol@f1+1,f
  2402  0203  0DD6               	rlf	___fltol@f1+2,f
  2403  0204  0DD7               	rlf	___fltol@f1+3,f
  2404  0205  0B89               	decfsz	9,f
  2405  0206  2A01               	goto	u1545
  2406  0207  3001               	movlw	1
  2407  0208  02DE               	subwf	___fltol@exp1,f
  2408  0209                     l565:	
  2409  0209  085E               	movf	___fltol@exp1,w
  2410  020A  1D03               	btfss	3,2
  2411  020B  2A0D               	goto	u1551
  2412  020C  2A0E               	goto	u1550
  2413  020D                     u1551:	
  2414  020D  2A00               	goto	l1606
  2415  020E                     u1550:	
  2416  020E                     l1608:	
  2417  020E  085D               	movf	___fltol@sign1,w
  2418  020F  1903               	btfsc	3,2
  2419  0210  2A12               	goto	u1561
  2420  0211  2A13               	goto	u1560
  2421  0212                     u1561:	
  2422  0212  2A1E               	goto	l568
  2423  0213                     u1560:	
  2424  0213                     l1610:	
  2425  0213  09D4               	comf	___fltol@f1,f
  2426  0214  09D5               	comf	___fltol@f1+1,f
  2427  0215  09D6               	comf	___fltol@f1+2,f
  2428  0216  09D7               	comf	___fltol@f1+3,f
  2429  0217  0AD4               	incf	___fltol@f1,f
  2430  0218  1903               	skipnz
  2431  0219  0AD5               	incf	___fltol@f1+1,f
  2432  021A  1903               	skipnz
  2433  021B  0AD6               	incf	___fltol@f1+2,f
  2434  021C  1903               	skipnz
  2435  021D  0AD7               	incf	___fltol@f1+3,f
  2436  021E                     l568:	
  2437  021E                     l558:	
  2438  021E  0008               	return
  2439  021F                     __end_of___fltol:	
  2440                           
  2441                           	psect	text7
  2442  05A3                     __ptext7:	
  2443 ;; *************** function ___flmul *****************
  2444 ;; Defined at:
  2445 ;;		line 8 in file "C:\Program Files (x86)\Microchip\xc8\v2.10\pic\sources\c99\common\sprcmul.c"
  2446 ;; Parameters:    Size  Location     Type
  2447 ;;  b               4   26[BANK0 ] long 
  2448 ;;  a               4   30[BANK0 ] long 
  2449 ;; Auto vars:     Size  Location     Type
  2450 ;;  prod            4   46[BANK0 ] struct .
  2451 ;;  grs             4   40[BANK0 ] unsigned long 
  2452 ;;  temp            2   50[BANK0 ] struct .
  2453 ;;  bexp            1   45[BANK0 ] unsigned char 
  2454 ;;  aexp            1   44[BANK0 ] unsigned char 
  2455 ;;  sign            1   39[BANK0 ] unsigned char 
  2456 ;; Return value:  Size  Location     Type
  2457 ;;                  4   26[BANK0 ] unsigned char 
  2458 ;; Registers used:
  2459 ;;		wreg, status,2, status,0, pclath, cstack
  2460 ;; Tracked objects:
  2461 ;;		On entry : 0/0
  2462 ;;		On exit  : 0/0
  2463 ;;		Unchanged: 0/0
  2464 ;; Data sizes:     COMMON   BANK0   BANK1   BANK2   BANK3   BANK4   BANK5   BANK6   BANK7   BANK8   BANK9  BANK10  BANK1
      +1  BANK12
  2465 ;;      Params:         0       8       0       0       0       0       0       0       0       0       0       0       
      +0       0
  2466 ;;      Locals:         0      13       0       0       0       0       0       0       0       0       0       0       
      +0       0
  2467 ;;      Temps:          0       5       0       0       0       0       0       0       0       0       0       0       
      +0       0
  2468 ;;      Totals:         0      26       0       0       0       0       0       0       0       0       0       0       
      +0       0
  2469 ;;Total ram usage:       26 bytes
  2470 ;; Hardware stack levels used:    1
  2471 ;; Hardware stack levels required when called:    1
  2472 ;; This function calls:
  2473 ;;		__Umul8_16
  2474 ;; This function is called by:
  2475 ;;		_main
  2476 ;; This function uses a non-reentrant model
  2477 ;;
  2478                           
  2479                           
  2480                           ;psect for function ___flmul
  2481  05A3                     ___flmul:	
  2482  05A3                     l1752:	
  2483                           ;incstack = 0
  2484                           ; Regs used in ___flmul: [wreg+status,2+status,0+pclath+cstack]
  2485                           
  2486  05A3  0020               	movlb	0	; select bank0
  2487  05A4  083D               	movf	___flmul@b+3,w
  2488  05A5  3980               	andlw	128
  2489  05A6  00C2               	movwf	??___flmul
  2490  05A7  0842               	movf	??___flmul,w
  2491  05A8  00C7               	movwf	___flmul@sign
  2492  05A9                     l1754:	
  2493  05A9  353D               	lslf	___flmul@b+3,w
  2494  05AA  00C2               	movwf	??___flmul
  2495  05AB  0842               	movf	??___flmul,w
  2496  05AC  00CD               	movwf	___flmul@bexp
  2497  05AD                     l1756:	
  2498  05AD  1FBC               	btfss	___flmul@b+2,7
  2499  05AE  2DB0               	goto	u1861
  2500  05AF  2DB1               	goto	u1860
  2501  05B0                     u1861:	
  2502  05B0  2DB2               	goto	l1760
  2503  05B1                     u1860:	
  2504  05B1                     l1758:	
  2505  05B1  144D               	bsf	___flmul@bexp,0
  2506  05B2                     l1760:	
  2507  05B2  084D               	movf	___flmul@bexp,w
  2508  05B3  1903               	btfsc	3,2
  2509  05B4  2DB6               	goto	u1871
  2510  05B5  2DB7               	goto	u1870
  2511  05B6                     u1871:	
  2512  05B6  2DC6               	goto	l1768
  2513  05B7                     u1870:	
  2514  05B7                     l1762:	
  2515  05B7  0A4D               	incf	___flmul@bexp,w
  2516  05B8  1D03               	btfss	3,2
  2517  05B9  2DBB               	goto	u1881
  2518  05BA  2DBC               	goto	u1880
  2519  05BB                     u1881:	
  2520  05BB  2DC4               	goto	l1766
  2521  05BC                     u1880:	
  2522  05BC                     l1764:	
  2523  05BC  3000               	movlw	0
  2524  05BD  00BD               	movwf	___flmul@b+3
  2525  05BE  3000               	movlw	0
  2526  05BF  00BC               	movwf	___flmul@b+2
  2527  05C0  3000               	movlw	0
  2528  05C1  00BB               	movwf	___flmul@b+1
  2529  05C2  3000               	movlw	0
  2530  05C3  00BA               	movwf	___flmul@b
  2531  05C4                     l1766:	
  2532  05C4  17BC               	bsf	___flmul@b+2,7
  2533  05C5  2DCE               	goto	l1770
  2534  05C6                     l1768:	
  2535  05C6  3000               	movlw	0
  2536  05C7  00BD               	movwf	___flmul@b+3
  2537  05C8  3000               	movlw	0
  2538  05C9  00BC               	movwf	___flmul@b+2
  2539  05CA  3000               	movlw	0
  2540  05CB  00BB               	movwf	___flmul@b+1
  2541  05CC  3000               	movlw	0
  2542  05CD  00BA               	movwf	___flmul@b
  2543  05CE                     l1770:	
  2544  05CE  0841               	movf	___flmul@a+3,w
  2545  05CF  3980               	andlw	128
  2546  05D0  00C2               	movwf	??___flmul
  2547  05D1  0842               	movf	??___flmul,w
  2548  05D2  06C7               	xorwf	___flmul@sign,f
  2549  05D3                     l1772:	
  2550  05D3  3541               	lslf	___flmul@a+3,w
  2551  05D4  00C2               	movwf	??___flmul
  2552  05D5  0842               	movf	??___flmul,w
  2553  05D6  00CC               	movwf	___flmul@aexp
  2554  05D7                     l1774:	
  2555  05D7  1FC0               	btfss	___flmul@a+2,7
  2556  05D8  2DDA               	goto	u1891
  2557  05D9  2DDB               	goto	u1890
  2558  05DA                     u1891:	
  2559  05DA  2DDC               	goto	l1778
  2560  05DB                     u1890:	
  2561  05DB                     l1776:	
  2562  05DB  144C               	bsf	___flmul@aexp,0
  2563  05DC                     l1778:	
  2564  05DC  084C               	movf	___flmul@aexp,w
  2565  05DD  1903               	btfsc	3,2
  2566  05DE  2DE0               	goto	u1901
  2567  05DF  2DE1               	goto	u1900
  2568  05E0                     u1901:	
  2569  05E0  2DF0               	goto	l1786
  2570  05E1                     u1900:	
  2571  05E1                     l1780:	
  2572  05E1  0A4C               	incf	___flmul@aexp,w
  2573  05E2  1D03               	btfss	3,2
  2574  05E3  2DE5               	goto	u1911
  2575  05E4  2DE6               	goto	u1910
  2576  05E5                     u1911:	
  2577  05E5  2DEE               	goto	l1784
  2578  05E6                     u1910:	
  2579  05E6                     l1782:	
  2580  05E6  3000               	movlw	0
  2581  05E7  00C1               	movwf	___flmul@a+3
  2582  05E8  3000               	movlw	0
  2583  05E9  00C0               	movwf	___flmul@a+2
  2584  05EA  3000               	movlw	0
  2585  05EB  00BF               	movwf	___flmul@a+1
  2586  05EC  3000               	movlw	0
  2587  05ED  00BE               	movwf	___flmul@a
  2588  05EE                     l1784:	
  2589  05EE  17C0               	bsf	___flmul@a+2,7
  2590  05EF  2DF8               	goto	l1788
  2591  05F0                     l1786:	
  2592  05F0  3000               	movlw	0
  2593  05F1  00C1               	movwf	___flmul@a+3
  2594  05F2  3000               	movlw	0
  2595  05F3  00C0               	movwf	___flmul@a+2
  2596  05F4  3000               	movlw	0
  2597  05F5  00BF               	movwf	___flmul@a+1
  2598  05F6  3000               	movlw	0
  2599  05F7  00BE               	movwf	___flmul@a
  2600  05F8                     l1788:	
  2601  05F8  084C               	movf	___flmul@aexp,w
  2602  05F9  1903               	btfsc	3,2
  2603  05FA  2DFC               	goto	u1921
  2604  05FB  2DFD               	goto	u1920
  2605  05FC                     u1921:	
  2606  05FC  2E02               	goto	l1792
  2607  05FD                     u1920:	
  2608  05FD                     l1790:	
  2609  05FD  084D               	movf	___flmul@bexp,w
  2610  05FE  1D03               	btfss	3,2
  2611  05FF  2E01               	goto	u1931
  2612  0600  2E02               	goto	u1930
  2613  0601                     u1931:	
  2614  0601  2E0B               	goto	l1796
  2615  0602                     u1930:	
  2616  0602                     l1792:	
  2617  0602  3000               	movlw	0
  2618  0603  00BD               	movwf	?___flmul+3
  2619  0604  3000               	movlw	0
  2620  0605  00BC               	movwf	?___flmul+2
  2621  0606  3000               	movlw	0
  2622  0607  00BB               	movwf	?___flmul+1
  2623  0608  3000               	movlw	0
  2624  0609  00BA               	movwf	?___flmul
  2625  060A  2FF9               	goto	l761
  2626  060B                     l1796:	
  2627  060B  083A               	movf	___flmul@b,w
  2628  060C  00C2               	movwf	??___flmul
  2629  060D  0842               	movf	??___flmul,w
  2630  060E  00F0               	movwf	__Umul8_16@multiplicand
  2631  060F  0840               	movf	___flmul@a+2,w
  2632  0610  3180  2062  3185   	fcall	__Umul8_16
  2633  0613  0871               	movf	?__Umul8_16+1,w
  2634  0614  0020               	movlb	0	; select bank0
  2635  0615  00D3               	movwf	___flmul@temp+1
  2636  0616  0870               	movf	?__Umul8_16,w
  2637  0617  00D2               	movwf	___flmul@temp
  2638  0618                     l1798:	
  2639  0618  0852               	movf	___flmul@temp,w
  2640  0619  00C2               	movwf	??___flmul
  2641  061A  01C3               	clrf	??___flmul+1
  2642  061B  01C4               	clrf	??___flmul+2
  2643  061C  01C5               	clrf	??___flmul+3
  2644  061D  0845               	movf	??___flmul+3,w
  2645  061E  00CB               	movwf	___flmul@grs+3
  2646  061F  0844               	movf	??___flmul+2,w
  2647  0620  00CA               	movwf	___flmul@grs+2
  2648  0621  0843               	movf	??___flmul+1,w
  2649  0622  00C9               	movwf	___flmul@grs+1
  2650  0623  0842               	movf	??___flmul,w
  2651  0624  00C8               	movwf	___flmul@grs
  2652  0625                     l1800:	
  2653  0625  0853               	movf	___flmul@temp+1,w
  2654  0626  00C2               	movwf	??___flmul
  2655  0627  01C3               	clrf	??___flmul+1
  2656  0628  01C4               	clrf	??___flmul+2
  2657  0629  01C5               	clrf	??___flmul+3
  2658  062A  0845               	movf	??___flmul+3,w
  2659  062B  00D1               	movwf	___flmul@prod+3
  2660  062C  0844               	movf	??___flmul+2,w
  2661  062D  00D0               	movwf	___flmul@prod+2
  2662  062E  0843               	movf	??___flmul+1,w
  2663  062F  00CF               	movwf	___flmul@prod+1
  2664  0630  0842               	movf	??___flmul,w
  2665  0631  00CE               	movwf	___flmul@prod
  2666  0632  083B               	movf	___flmul@b+1,w
  2667  0633  00C2               	movwf	??___flmul
  2668  0634  0842               	movf	??___flmul,w
  2669  0635  00F0               	movwf	__Umul8_16@multiplicand
  2670  0636  083F               	movf	___flmul@a+1,w
  2671  0637  3180  2062  3185   	fcall	__Umul8_16
  2672  063A  0871               	movf	?__Umul8_16+1,w
  2673  063B  0020               	movlb	0	; select bank0
  2674  063C  00D3               	movwf	___flmul@temp+1
  2675  063D  0870               	movf	?__Umul8_16,w
  2676  063E  00D2               	movwf	___flmul@temp
  2677  063F                     l1802:	
  2678  063F  0852               	movf	___flmul@temp,w
  2679  0640  00C2               	movwf	??___flmul
  2680  0641  01C3               	clrf	??___flmul+1
  2681  0642  01C4               	clrf	??___flmul+2
  2682  0643  01C5               	clrf	??___flmul+3
  2683  0644  0842               	movf	??___flmul,w
  2684  0645  07C8               	addwf	___flmul@grs,f
  2685  0646  0843               	movf	??___flmul+1,w
  2686  0647  3DC9               	addwfc	___flmul@grs+1,f
  2687  0648  0844               	movf	??___flmul+2,w
  2688  0649  3DCA               	addwfc	___flmul@grs+2,f
  2689  064A  0845               	movf	??___flmul+3,w
  2690  064B  3DCB               	addwfc	___flmul@grs+3,f
  2691  064C                     l1804:	
  2692  064C  0853               	movf	___flmul@temp+1,w
  2693  064D  00C2               	movwf	??___flmul
  2694  064E  01C3               	clrf	??___flmul+1
  2695  064F  01C4               	clrf	??___flmul+2
  2696  0650  01C5               	clrf	??___flmul+3
  2697  0651  0842               	movf	??___flmul,w
  2698  0652  07CE               	addwf	___flmul@prod,f
  2699  0653  0843               	movf	??___flmul+1,w
  2700  0654  3DCF               	addwfc	___flmul@prod+1,f
  2701  0655  0844               	movf	??___flmul+2,w
  2702  0656  3DD0               	addwfc	___flmul@prod+2,f
  2703  0657  0845               	movf	??___flmul+3,w
  2704  0658  3DD1               	addwfc	___flmul@prod+3,f
  2705  0659  083C               	movf	___flmul@b+2,w
  2706  065A  00C2               	movwf	??___flmul
  2707  065B  0842               	movf	??___flmul,w
  2708  065C  00F0               	movwf	__Umul8_16@multiplicand
  2709  065D  083E               	movf	___flmul@a,w
  2710  065E  3180  2062  3185   	fcall	__Umul8_16
  2711  0661  0871               	movf	?__Umul8_16+1,w
  2712  0662  0020               	movlb	0	; select bank0
  2713  0663  00D3               	movwf	___flmul@temp+1
  2714  0664  0870               	movf	?__Umul8_16,w
  2715  0665  00D2               	movwf	___flmul@temp
  2716  0666                     l1806:	
  2717  0666  0852               	movf	___flmul@temp,w
  2718  0667  00C2               	movwf	??___flmul
  2719  0668  01C3               	clrf	??___flmul+1
  2720  0669  01C4               	clrf	??___flmul+2
  2721  066A  01C5               	clrf	??___flmul+3
  2722  066B  0842               	movf	??___flmul,w
  2723  066C  07C8               	addwf	___flmul@grs,f
  2724  066D  0843               	movf	??___flmul+1,w
  2725  066E  3DC9               	addwfc	___flmul@grs+1,f
  2726  066F  0844               	movf	??___flmul+2,w
  2727  0670  3DCA               	addwfc	___flmul@grs+2,f
  2728  0671  0845               	movf	??___flmul+3,w
  2729  0672  3DCB               	addwfc	___flmul@grs+3,f
  2730  0673                     l1808:	
  2731  0673  0853               	movf	___flmul@temp+1,w
  2732  0674  00C2               	movwf	??___flmul
  2733  0675  01C3               	clrf	??___flmul+1
  2734  0676  01C4               	clrf	??___flmul+2
  2735  0677  01C5               	clrf	??___flmul+3
  2736  0678  0842               	movf	??___flmul,w
  2737  0679  07CE               	addwf	___flmul@prod,f
  2738  067A  0843               	movf	??___flmul+1,w
  2739  067B  3DCF               	addwfc	___flmul@prod+1,f
  2740  067C  0844               	movf	??___flmul+2,w
  2741  067D  3DD0               	addwfc	___flmul@prod+2,f
  2742  067E  0845               	movf	??___flmul+3,w
  2743  067F  3DD1               	addwfc	___flmul@prod+3,f
  2744  0680                     l1810:	
  2745  0680  3008               	movlw	8
  2746  0681                     u1945:	
  2747  0681  35C8               	lslf	___flmul@grs,f
  2748  0682  0DC9               	rlf	___flmul@grs+1,f
  2749  0683  0DCA               	rlf	___flmul@grs+2,f
  2750  0684  0DCB               	rlf	___flmul@grs+3,f
  2751  0685  0B89               	decfsz	9,f
  2752  0686  2E81               	goto	u1945
  2753  0687                     l1812:	
  2754  0687  083B               	movf	___flmul@b+1,w
  2755  0688  00C2               	movwf	??___flmul
  2756  0689  0842               	movf	??___flmul,w
  2757  068A  00F0               	movwf	__Umul8_16@multiplicand
  2758  068B  083E               	movf	___flmul@a,w
  2759  068C  3180  2062  3185   	fcall	__Umul8_16
  2760  068F  0871               	movf	?__Umul8_16+1,w
  2761  0690  0020               	movlb	0	; select bank0
  2762  0691  00D3               	movwf	___flmul@temp+1
  2763  0692  0870               	movf	?__Umul8_16,w
  2764  0693  00D2               	movwf	___flmul@temp
  2765  0694                     l1814:	
  2766  0694  0852               	movf	___flmul@temp,w
  2767  0695  07C8               	addwf	___flmul@grs,f
  2768  0696  0853               	movf	___flmul@temp+1,w
  2769  0697  3DC9               	addwfc	___flmul@grs+1,f
  2770  0698  3000               	movlw	0
  2771  0699  3DCA               	addwfc	___flmul@grs+2,f
  2772  069A  3DCB               	addwfc	___flmul@grs+3,f
  2773  069B                     l1816:	
  2774  069B  083A               	movf	___flmul@b,w
  2775  069C  00C2               	movwf	??___flmul
  2776  069D  0842               	movf	??___flmul,w
  2777  069E  00F0               	movwf	__Umul8_16@multiplicand
  2778  069F  083F               	movf	___flmul@a+1,w
  2779  06A0  3180  2062  3185   	fcall	__Umul8_16
  2780  06A3  0871               	movf	?__Umul8_16+1,w
  2781  06A4  0020               	movlb	0	; select bank0
  2782  06A5  00D3               	movwf	___flmul@temp+1
  2783  06A6  0870               	movf	?__Umul8_16,w
  2784  06A7  00D2               	movwf	___flmul@temp
  2785  06A8                     l1818:	
  2786  06A8  0852               	movf	___flmul@temp,w
  2787  06A9  07C8               	addwf	___flmul@grs,f
  2788  06AA  0853               	movf	___flmul@temp+1,w
  2789  06AB  3DC9               	addwfc	___flmul@grs+1,f
  2790  06AC  3000               	movlw	0
  2791  06AD  3DCA               	addwfc	___flmul@grs+2,f
  2792  06AE  3DCB               	addwfc	___flmul@grs+3,f
  2793  06AF                     l1820:	
  2794  06AF  3008               	movlw	8
  2795  06B0                     u1955:	
  2796  06B0  35C8               	lslf	___flmul@grs,f
  2797  06B1  0DC9               	rlf	___flmul@grs+1,f
  2798  06B2  0DCA               	rlf	___flmul@grs+2,f
  2799  06B3  0DCB               	rlf	___flmul@grs+3,f
  2800  06B4  0B89               	decfsz	9,f
  2801  06B5  2EB0               	goto	u1955
  2802  06B6  083A               	movf	___flmul@b,w
  2803  06B7  00C2               	movwf	??___flmul
  2804  06B8  0842               	movf	??___flmul,w
  2805  06B9  00F0               	movwf	__Umul8_16@multiplicand
  2806  06BA  083E               	movf	___flmul@a,w
  2807  06BB  3180  2062  3185   	fcall	__Umul8_16
  2808  06BE  0871               	movf	?__Umul8_16+1,w
  2809  06BF  0020               	movlb	0	; select bank0
  2810  06C0  00D3               	movwf	___flmul@temp+1
  2811  06C1  0870               	movf	?__Umul8_16,w
  2812  06C2  00D2               	movwf	___flmul@temp
  2813  06C3                     l1822:	
  2814  06C3  0852               	movf	___flmul@temp,w
  2815  06C4  07C8               	addwf	___flmul@grs,f
  2816  06C5  0853               	movf	___flmul@temp+1,w
  2817  06C6  3DC9               	addwfc	___flmul@grs+1,f
  2818  06C7  3000               	movlw	0
  2819  06C8  3DCA               	addwfc	___flmul@grs+2,f
  2820  06C9  3DCB               	addwfc	___flmul@grs+3,f
  2821  06CA                     l1824:	
  2822  06CA  083B               	movf	___flmul@b+1,w
  2823  06CB  00C2               	movwf	??___flmul
  2824  06CC  0842               	movf	??___flmul,w
  2825  06CD  00F0               	movwf	__Umul8_16@multiplicand
  2826  06CE  0840               	movf	___flmul@a+2,w
  2827  06CF  3180  2062  3185   	fcall	__Umul8_16
  2828  06D2  0871               	movf	?__Umul8_16+1,w
  2829  06D3  0020               	movlb	0	; select bank0
  2830  06D4  00D3               	movwf	___flmul@temp+1
  2831  06D5  0870               	movf	?__Umul8_16,w
  2832  06D6  00D2               	movwf	___flmul@temp
  2833  06D7  0852               	movf	___flmul@temp,w
  2834  06D8  07CE               	addwf	___flmul@prod,f
  2835  06D9  0853               	movf	___flmul@temp+1,w
  2836  06DA  3DCF               	addwfc	___flmul@prod+1,f
  2837  06DB  3000               	movlw	0
  2838  06DC  3DD0               	addwfc	___flmul@prod+2,f
  2839  06DD  3DD1               	addwfc	___flmul@prod+3,f
  2840  06DE                     l1826:	
  2841  06DE  083C               	movf	___flmul@b+2,w
  2842  06DF  00C2               	movwf	??___flmul
  2843  06E0  0842               	movf	??___flmul,w
  2844  06E1  00F0               	movwf	__Umul8_16@multiplicand
  2845  06E2  083F               	movf	___flmul@a+1,w
  2846  06E3  3180  2062  3185   	fcall	__Umul8_16
  2847  06E6  0871               	movf	?__Umul8_16+1,w
  2848  06E7  0020               	movlb	0	; select bank0
  2849  06E8  00D3               	movwf	___flmul@temp+1
  2850  06E9  0870               	movf	?__Umul8_16,w
  2851  06EA  00D2               	movwf	___flmul@temp
  2852  06EB                     l1828:	
  2853  06EB  0852               	movf	___flmul@temp,w
  2854  06EC  07CE               	addwf	___flmul@prod,f
  2855  06ED  0853               	movf	___flmul@temp+1,w
  2856  06EE  3DCF               	addwfc	___flmul@prod+1,f
  2857  06EF  3000               	movlw	0
  2858  06F0  3DD0               	addwfc	___flmul@prod+2,f
  2859  06F1  3DD1               	addwfc	___flmul@prod+3,f
  2860  06F2  083C               	movf	___flmul@b+2,w
  2861  06F3  00C2               	movwf	??___flmul
  2862  06F4  0842               	movf	??___flmul,w
  2863  06F5  00F0               	movwf	__Umul8_16@multiplicand
  2864  06F6  0840               	movf	___flmul@a+2,w
  2865  06F7  3180  2062  3185   	fcall	__Umul8_16
  2866  06FA  0871               	movf	?__Umul8_16+1,w
  2867  06FB  0020               	movlb	0	; select bank0
  2868  06FC  00D3               	movwf	___flmul@temp+1
  2869  06FD  0870               	movf	?__Umul8_16,w
  2870  06FE  00D2               	movwf	___flmul@temp
  2871  06FF                     l1830:	
  2872  06FF  0852               	movf	___flmul@temp,w
  2873  0700  00C2               	movwf	??___flmul
  2874  0701  0853               	movf	___flmul@temp+1,w
  2875  0702  00C3               	movwf	??___flmul+1
  2876  0703  01C4               	clrf	??___flmul+2
  2877  0704  01C5               	clrf	??___flmul+3
  2878  0705  3008               	movlw	8
  2879  0706                     u1965:	
  2880  0706  35C2               	lslf	??___flmul,f
  2881  0707  0DC3               	rlf	??___flmul+1,f
  2882  0708  0DC4               	rlf	??___flmul+2,f
  2883  0709  0DC5               	rlf	??___flmul+3,f
  2884  070A                     u1960:	
  2885  070A  0B89               	decfsz	9,f
  2886  070B  2F06               	goto	u1965
  2887  070C  0842               	movf	??___flmul,w
  2888  070D  07CE               	addwf	___flmul@prod,f
  2889  070E  0843               	movf	??___flmul+1,w
  2890  070F  3DCF               	addwfc	___flmul@prod+1,f
  2891  0710  0844               	movf	??___flmul+2,w
  2892  0711  3DD0               	addwfc	___flmul@prod+2,f
  2893  0712  0845               	movf	??___flmul+3,w
  2894  0713  3DD1               	addwfc	___flmul@prod+3,f
  2895  0714                     l1832:	
  2896  0714  0848               	movf	___flmul@grs,w
  2897  0715  00C2               	movwf	??___flmul
  2898  0716  0849               	movf	___flmul@grs+1,w
  2899  0717  00C3               	movwf	??___flmul+1
  2900  0718  084A               	movf	___flmul@grs+2,w
  2901  0719  00C4               	movwf	??___flmul+2
  2902  071A  084B               	movf	___flmul@grs+3,w
  2903  071B  00C5               	movwf	??___flmul+3
  2904  071C  3018               	movlw	24
  2905  071D                     u1975:	
  2906  071D  36C5               	lsrf	??___flmul+3,f
  2907  071E  0CC4               	rrf	??___flmul+2,f
  2908  071F  0CC3               	rrf	??___flmul+1,f
  2909  0720  0CC2               	rrf	??___flmul,f
  2910  0721                     u1970:	
  2911  0721  0B89               	decfsz	9,f
  2912  0722  2F1D               	goto	u1975
  2913  0723  0842               	movf	??___flmul,w
  2914  0724  07CE               	addwf	___flmul@prod,f
  2915  0725  0843               	movf	??___flmul+1,w
  2916  0726  3DCF               	addwfc	___flmul@prod+1,f
  2917  0727  0844               	movf	??___flmul+2,w
  2918  0728  3DD0               	addwfc	___flmul@prod+2,f
  2919  0729  0845               	movf	??___flmul+3,w
  2920  072A  3DD1               	addwfc	___flmul@prod+3,f
  2921  072B                     l1834:	
  2922  072B  3008               	movlw	8
  2923  072C                     u1985:	
  2924  072C  35C8               	lslf	___flmul@grs,f
  2925  072D  0DC9               	rlf	___flmul@grs+1,f
  2926  072E  0DCA               	rlf	___flmul@grs+2,f
  2927  072F  0DCB               	rlf	___flmul@grs+3,f
  2928  0730  0B89               	decfsz	9,f
  2929  0731  2F2C               	goto	u1985
  2930  0732                     l1836:	
  2931  0732  084D               	movf	___flmul@bexp,w
  2932  0733  074C               	addwf	___flmul@aexp,w
  2933  0734  00C2               	movwf	??___flmul
  2934  0735  01C3               	clrf	??___flmul+1
  2935  0736  0DC3               	rlf	??___flmul+1,f
  2936  0737  0842               	movf	??___flmul,w
  2937  0738  3E82               	addlw	130
  2938  0739  00D2               	movwf	___flmul@temp
  2939  073A  30FF               	movlw	255
  2940  073B  3D43               	addwfc	??___flmul+1,w
  2941  073C  00D3               	movwf	___flmul@temp+1
  2942  073D  2F55               	goto	l1848
  2943  073E                     l1838:	
  2944  073E  3001               	movlw	1
  2945  073F                     u1995:	
  2946  073F  35CE               	lslf	___flmul@prod,f
  2947  0740  0DCF               	rlf	___flmul@prod+1,f
  2948  0741  0DD0               	rlf	___flmul@prod+2,f
  2949  0742  0DD1               	rlf	___flmul@prod+3,f
  2950  0743  0B89               	decfsz	9,f
  2951  0744  2F3F               	goto	u1995
  2952  0745                     l1840:	
  2953  0745  1FCB               	btfss	___flmul@grs+3,7
  2954  0746  2F48               	goto	u2001
  2955  0747  2F49               	goto	u2000
  2956  0748                     u2001:	
  2957  0748  2F4A               	goto	l1844
  2958  0749                     u2000:	
  2959  0749                     l1842:	
  2960  0749  144E               	bsf	___flmul@prod,0
  2961  074A                     l1844:	
  2962  074A  3001               	movlw	1
  2963  074B                     u2015:	
  2964  074B  35C8               	lslf	___flmul@grs,f
  2965  074C  0DC9               	rlf	___flmul@grs+1,f
  2966  074D  0DCA               	rlf	___flmul@grs+2,f
  2967  074E  0DCB               	rlf	___flmul@grs+3,f
  2968  074F  0B89               	decfsz	9,f
  2969  0750  2F4B               	goto	u2015
  2970  0751                     l1846:	
  2971  0751  30FF               	movlw	255
  2972  0752  07D2               	addwf	___flmul@temp,f
  2973  0753  30FF               	movlw	255
  2974  0754  3DD3               	addwfc	___flmul@temp+1,f
  2975  0755                     l1848:	
  2976  0755  1FD0               	btfss	___flmul@prod+2,7
  2977  0756  2F58               	goto	u2021
  2978  0757  2F59               	goto	u2020
  2979  0758                     u2021:	
  2980  0758  2F3E               	goto	l1838
  2981  0759                     u2020:	
  2982  0759                     l1850:	
  2983  0759  01CC               	clrf	___flmul@aexp
  2984  075A                     l1852:	
  2985  075A  1FCB               	btfss	___flmul@grs+3,7
  2986  075B  2F5D               	goto	u2031
  2987  075C  2F5E               	goto	u2030
  2988  075D                     u2031:	
  2989  075D  2F7A               	goto	l1860
  2990  075E                     u2030:	
  2991  075E                     l1854:	
  2992  075E  30FF               	movlw	255
  2993  075F  0548               	andwf	___flmul@grs,w
  2994  0760  00C2               	movwf	??___flmul
  2995  0761  30FF               	movlw	255
  2996  0762  0549               	andwf	___flmul@grs+1,w
  2997  0763  00C3               	movwf	??___flmul+1
  2998  0764  30FF               	movlw	255
  2999  0765  054A               	andwf	___flmul@grs+2,w
  3000  0766  00C4               	movwf	??___flmul+2
  3001  0767  307F               	movlw	127
  3002  0768  054B               	andwf	___flmul@grs+3,w
  3003  0769  00C5               	movwf	??___flmul+3
  3004  076A  0845               	movf	??___flmul+3,w
  3005  076B  0444               	iorwf	??___flmul+2,w
  3006  076C  0443               	iorwf	??___flmul+1,w
  3007  076D  0442               	iorwf	??___flmul,w
  3008  076E  1903               	skipnz
  3009  076F  2F71               	goto	u2041
  3010  0770  2F72               	goto	u2040
  3011  0771                     u2041:	
  3012  0771  2F75               	goto	l767
  3013  0772                     u2040:	
  3014  0772                     l1856:	
  3015  0772  01CC               	clrf	___flmul@aexp
  3016  0773  0ACC               	incf	___flmul@aexp,f
  3017  0774  2F7A               	goto	l1860
  3018  0775                     l767:	
  3019  0775  1C4E               	btfss	___flmul@prod,0
  3020  0776  2F78               	goto	u2051
  3021  0777  2F79               	goto	u2050
  3022  0778                     u2051:	
  3023  0778  2F7A               	goto	l1860
  3024  0779                     u2050:	
  3025  0779  2F72               	goto	l1856
  3026  077A                     l1860:	
  3027  077A  084C               	movf	___flmul@aexp,w
  3028  077B  1903               	btfsc	3,2
  3029  077C  2F7E               	goto	u2061
  3030  077D  2F7F               	goto	u2060
  3031  077E                     u2061:	
  3032  077E  2FA7               	goto	l1870
  3033  077F                     u2060:	
  3034  077F                     l1862:	
  3035  077F  3001               	movlw	1
  3036  0780  07CE               	addwf	___flmul@prod,f
  3037  0781  3000               	movlw	0
  3038  0782  3DCF               	addwfc	___flmul@prod+1,f
  3039  0783  3000               	movlw	0
  3040  0784  3DD0               	addwfc	___flmul@prod+2,f
  3041  0785  3000               	movlw	0
  3042  0786  3DD1               	addwfc	___flmul@prod+3,f
  3043  0787                     l1864:	
  3044  0787  1C51               	btfss	___flmul@prod+3,0
  3045  0788  2F8A               	goto	u2071
  3046  0789  2F8B               	goto	u2070
  3047  078A                     u2071:	
  3048  078A  2FA7               	goto	l1870
  3049  078B                     u2070:	
  3050  078B                     l1866:	
  3051  078B  084E               	movf	___flmul@prod,w
  3052  078C  00C2               	movwf	??___flmul
  3053  078D  084F               	movf	___flmul@prod+1,w
  3054  078E  00C3               	movwf	??___flmul+1
  3055  078F  0850               	movf	___flmul@prod+2,w
  3056  0790  00C4               	movwf	??___flmul+2
  3057  0791  0851               	movf	___flmul@prod+3,w
  3058  0792  00C5               	movwf	??___flmul+3
  3059  0793  3001               	movlw	1
  3060  0794  00C6               	movwf	??___flmul+4
  3061  0795                     u2085:	
  3062  0795  37C5               	asrf	??___flmul+3,f
  3063  0796  0CC4               	rrf	??___flmul+2,f
  3064  0797  0CC3               	rrf	??___flmul+1,f
  3065  0798  0CC2               	rrf	??___flmul,f
  3066  0799                     u2080:	
  3067  0799  0BC6               	decfsz	??___flmul+4,f
  3068  079A  2F95               	goto	u2085
  3069  079B  0845               	movf	??___flmul+3,w
  3070  079C  00D1               	movwf	___flmul@prod+3
  3071  079D  0844               	movf	??___flmul+2,w
  3072  079E  00D0               	movwf	___flmul@prod+2
  3073  079F  0843               	movf	??___flmul+1,w
  3074  07A0  00CF               	movwf	___flmul@prod+1
  3075  07A1  0842               	movf	??___flmul,w
  3076  07A2  00CE               	movwf	___flmul@prod
  3077  07A3                     l1868:	
  3078  07A3  3001               	movlw	1
  3079  07A4  07D2               	addwf	___flmul@temp,f
  3080  07A5  3000               	movlw	0
  3081  07A6  3DD3               	addwfc	___flmul@temp+1,f
  3082  07A7                     l1870:	
  3083  07A7  0853               	movf	___flmul@temp+1,w
  3084  07A8  3A80               	xorlw	128
  3085  07A9  00C2               	movwf	??___flmul
  3086  07AA  3080               	movlw	128
  3087  07AB  0242               	subwf	??___flmul,w
  3088  07AC  1D03               	skipz
  3089  07AD  2FB0               	goto	u2095
  3090  07AE  30FF               	movlw	255
  3091  07AF  0252               	subwf	___flmul@temp,w
  3092  07B0                     u2095:	
  3093  07B0  1C03               	skipc
  3094  07B1  2FB3               	goto	u2091
  3095  07B2  2FB4               	goto	u2090
  3096  07B3                     u2091:	
  3097  07B3  2FBE               	goto	l1874
  3098  07B4                     u2090:	
  3099  07B4                     l1872:	
  3100  07B4  307F               	movlw	127
  3101  07B5  0020               	movlb	0	; select bank0
  3102  07B6  00D1               	movwf	___flmul@prod+3
  3103  07B7  3080               	movlw	128
  3104  07B8  00D0               	movwf	___flmul@prod+2
  3105  07B9  3000               	movlw	0
  3106  07BA  00CF               	movwf	___flmul@prod+1
  3107  07BB  3000               	movlw	0
  3108  07BC  00CE               	movwf	___flmul@prod
  3109  07BD  2FED               	goto	l773
  3110  07BE                     l1874:	
  3111  07BE  0020               	movlb	0	; select bank0
  3112  07BF  0853               	movf	___flmul@temp+1,w
  3113  07C0  3A80               	xorlw	128
  3114  07C1  00C2               	movwf	??___flmul
  3115  07C2  3080               	movlw	128
  3116  07C3  0242               	subwf	??___flmul,w
  3117  07C4  1D03               	skipz
  3118  07C5  2FC8               	goto	u2105
  3119  07C6  3001               	movlw	1
  3120  07C7  0252               	subwf	___flmul@temp,w
  3121  07C8                     u2105:	
  3122  07C8  1803               	skipnc
  3123  07C9  2FCB               	goto	u2101
  3124  07CA  2FCC               	goto	u2100
  3125  07CB                     u2101:	
  3126  07CB  2FD7               	goto	l1880
  3127  07CC                     u2100:	
  3128  07CC                     l1876:	
  3129  07CC  3000               	movlw	0
  3130  07CD  0020               	movlb	0	; select bank0
  3131  07CE  00D1               	movwf	___flmul@prod+3
  3132  07CF  3000               	movlw	0
  3133  07D0  00D0               	movwf	___flmul@prod+2
  3134  07D1  3000               	movlw	0
  3135  07D2  00CF               	movwf	___flmul@prod+1
  3136  07D3  3000               	movlw	0
  3137  07D4  00CE               	movwf	___flmul@prod
  3138  07D5                     l1878:	
  3139  07D5  01C7               	clrf	___flmul@sign
  3140  07D6  2FED               	goto	l773
  3141  07D7                     l1880:	
  3142  07D7  0020               	movlb	0	; select bank0
  3143  07D8  0852               	movf	___flmul@temp,w
  3144  07D9  00C2               	movwf	??___flmul
  3145  07DA  0842               	movf	??___flmul,w
  3146  07DB  00CD               	movwf	___flmul@bexp
  3147  07DC  30FF               	movlw	255
  3148  07DD  05CE               	andwf	___flmul@prod,f
  3149  07DE  30FF               	movlw	255
  3150  07DF  05CF               	andwf	___flmul@prod+1,f
  3151  07E0  307F               	movlw	127
  3152  07E1  05D0               	andwf	___flmul@prod+2,f
  3153  07E2  3000               	movlw	0
  3154  07E3  05D1               	andwf	___flmul@prod+3,f
  3155  07E4                     l1882:	
  3156  07E4  1C4D               	btfss	___flmul@bexp,0
  3157  07E5  2FE7               	goto	u2111
  3158  07E6  2FE8               	goto	u2110
  3159  07E7                     u2111:	
  3160  07E7  2FE9               	goto	l1886
  3161  07E8                     u2110:	
  3162  07E8                     l1884:	
  3163  07E8  17D0               	bsf	___flmul@prod+2,7
  3164  07E9                     l1886:	
  3165  07E9  364D               	lsrf	___flmul@bexp,w
  3166  07EA  00C2               	movwf	??___flmul
  3167  07EB  0842               	movf	??___flmul,w
  3168  07EC  00D1               	movwf	___flmul@prod+3
  3169  07ED                     l773:	
  3170  07ED  0847               	movf	___flmul@sign,w
  3171  07EE  00C2               	movwf	??___flmul
  3172  07EF  0842               	movf	??___flmul,w
  3173  07F0  04D1               	iorwf	___flmul@prod+3,f
  3174  07F1                     l1888:	
  3175  07F1  0851               	movf	___flmul@prod+3,w
  3176  07F2  00BD               	movwf	?___flmul+3
  3177  07F3  0850               	movf	___flmul@prod+2,w
  3178  07F4  00BC               	movwf	?___flmul+2
  3179  07F5  084F               	movf	___flmul@prod+1,w
  3180  07F6  00BB               	movwf	?___flmul+1
  3181  07F7  084E               	movf	___flmul@prod,w
  3182  07F8  00BA               	movwf	?___flmul
  3183  07F9                     l761:	
  3184  07F9  0008               	return
  3185  07FA                     __end_of___flmul:	
  3186                           
  3187                           	psect	text8
  3188  0062                     __ptext8:	
  3189 ;; *************** function __Umul8_16 *****************
  3190 ;; Defined at:
  3191 ;;		line 4 in file "C:\Program Files (x86)\Microchip\xc8\v2.10\pic\sources\c99\common\Umul8_16.c"
  3192 ;; Parameters:    Size  Location     Type
  3193 ;;  multiplier      1    wreg     unsigned char 
  3194 ;;  multiplicand    1    0[COMMON] unsigned char 
  3195 ;; Auto vars:     Size  Location     Type
  3196 ;;  multiplier      1    8[COMMON] unsigned char 
  3197 ;;  word_mpld       2    6[COMMON] unsigned int 
  3198 ;;  product         2    4[COMMON] unsigned int 
  3199 ;; Return value:  Size  Location     Type
  3200 ;;                  2    0[COMMON] unsigned int 
  3201 ;; Registers used:
  3202 ;;		wreg, status,2, status,0
  3203 ;; Tracked objects:
  3204 ;;		On entry : 0/0
  3205 ;;		On exit  : 0/0
  3206 ;;		Unchanged: 0/0
  3207 ;; Data sizes:     COMMON   BANK0   BANK1   BANK2   BANK3   BANK4   BANK5   BANK6   BANK7   BANK8   BANK9  BANK10  BANK1
      +1  BANK12
  3208 ;;      Params:         2       0       0       0       0       0       0       0       0       0       0       0       
      +0       0
  3209 ;;      Locals:         5       0       0       0       0       0       0       0       0       0       0       0       
      +0       0
  3210 ;;      Temps:          2       0       0       0       0       0       0       0       0       0       0       0       
      +0       0
  3211 ;;      Totals:         9       0       0       0       0       0       0       0       0       0       0       0       
      +0       0
  3212 ;;Total ram usage:        9 bytes
  3213 ;; Hardware stack levels used:    1
  3214 ;; This function calls:
  3215 ;;		Nothing
  3216 ;; This function is called by:
  3217 ;;		___flmul
  3218 ;; This function uses a non-reentrant model
  3219 ;;
  3220                           
  3221                           
  3222                           ;psect for function __Umul8_16
  3223  0062                     __Umul8_16:	
  3224                           
  3225                           ;incstack = 0
  3226                           ; Regs used in __Umul8_16: [wreg+status,2+status,0]
  3227                           ;__Umul8_16@multiplier stored from wreg
  3228  0062  00F8               	movwf	__Umul8_16@multiplier
  3229  0063                     l1522:	
  3230  0063  01F4               	clrf	__Umul8_16@product
  3231  0064  01F5               	clrf	__Umul8_16@product+1
  3232  0065                     l1524:	
  3233  0065  0870               	movf	__Umul8_16@multiplicand,w
  3234  0066  00F2               	movwf	??__Umul8_16
  3235  0067  01F3               	clrf	??__Umul8_16+1
  3236  0068  0872               	movf	??__Umul8_16,w
  3237  0069  00F6               	movwf	__Umul8_16@word_mpld
  3238  006A  0873               	movf	??__Umul8_16+1,w
  3239  006B  00F7               	movwf	__Umul8_16@word_mpld+1
  3240  006C                     l1526:	
  3241  006C  1C78               	btfss	__Umul8_16@multiplier,0
  3242  006D  286F               	goto	u1431
  3243  006E  2870               	goto	u1430
  3244  006F                     u1431:	
  3245  006F  2874               	goto	l818
  3246  0070                     u1430:	
  3247  0070                     l1528:	
  3248  0070  0876               	movf	__Umul8_16@word_mpld,w
  3249  0071  07F4               	addwf	__Umul8_16@product,f
  3250  0072  0877               	movf	__Umul8_16@word_mpld+1,w
  3251  0073  3DF5               	addwfc	__Umul8_16@product+1,f
  3252  0074                     l818:	
  3253  0074  3001               	movlw	1
  3254  0075                     u1445:	
  3255  0075  35F6               	lslf	__Umul8_16@word_mpld,f
  3256  0076  0DF7               	rlf	__Umul8_16@word_mpld+1,f
  3257  0077  0B89               	decfsz	9,f
  3258  0078  2875               	goto	u1445
  3259  0079  1003               	clrc
  3260  007A  0CF8               	rrf	__Umul8_16@multiplier,f
  3261  007B                     l1530:	
  3262  007B  0878               	movf	__Umul8_16@multiplier,w
  3263  007C  1D03               	btfss	3,2
  3264  007D  287F               	goto	u1451
  3265  007E  2880               	goto	u1450
  3266  007F                     u1451:	
  3267  007F  286C               	goto	l1526
  3268  0080                     u1450:	
  3269  0080                     l1532:	
  3270  0080  0875               	movf	__Umul8_16@product+1,w
  3271  0081  00F1               	movwf	?__Umul8_16+1
  3272  0082  0874               	movf	__Umul8_16@product,w
  3273  0083  00F0               	movwf	?__Umul8_16
  3274  0084                     l820:	
  3275  0084  0008               	return
  3276  0085                     __end_of__Umul8_16:	
  3277                           
  3278                           	psect	text9
  3279  03EF                     __ptext9:	
  3280 ;; *************** function ___fldiv *****************
  3281 ;; Defined at:
  3282 ;;		line 8 in file "C:\Program Files (x86)\Microchip\xc8\v2.10\pic\sources\c99\common\sprcdiv.c"
  3283 ;; Parameters:    Size  Location     Type
  3284 ;;  a               4    0[BANK0 ] unsigned int 
  3285 ;;  b               4    4[BANK0 ] unsigned int 
  3286 ;; Auto vars:     Size  Location     Type
  3287 ;;  grs             4   20[BANK0 ] unsigned long 
  3288 ;;  rem             4   13[BANK0 ] unsigned long 
  3289 ;;  new_exp         2   18[BANK0 ] int 
  3290 ;;  aexp            1   25[BANK0 ] unsigned char 
  3291 ;;  bexp            1   24[BANK0 ] unsigned char 
  3292 ;;  sign            1   17[BANK0 ] unsigned char 
  3293 ;; Return value:  Size  Location     Type
  3294 ;;                  4    0[BANK0 ] unsigned char 
  3295 ;; Registers used:
  3296 ;;		wreg, status,2, status,0
  3297 ;; Tracked objects:
  3298 ;;		On entry : 0/0
  3299 ;;		On exit  : 0/0
  3300 ;;		Unchanged: 0/0
  3301 ;; Data sizes:     COMMON   BANK0   BANK1   BANK2   BANK3   BANK4   BANK5   BANK6   BANK7   BANK8   BANK9  BANK10  BANK1
      +1  BANK12
  3302 ;;      Params:         0       8       0       0       0       0       0       0       0       0       0       0       
      +0       0
  3303 ;;      Locals:         0      13       0       0       0       0       0       0       0       0       0       0       
      +0       0
  3304 ;;      Temps:          0       5       0       0       0       0       0       0       0       0       0       0       
      +0       0
  3305 ;;      Totals:         0      26       0       0       0       0       0       0       0       0       0       0       
      +0       0
  3306 ;;Total ram usage:       26 bytes
  3307 ;; Hardware stack levels used:    1
  3308 ;; This function calls:
  3309 ;;		Nothing
  3310 ;; This function is called by:
  3311 ;;		_main
  3312 ;; This function uses a non-reentrant model
  3313 ;;
  3314                           
  3315                           
  3316                           ;psect for function ___fldiv
  3317  03EF                     ___fldiv:	
  3318  03EF                     l1612:	
  3319                           ;incstack = 0
  3320                           ; Regs used in ___fldiv: [wreg+status,2+status,0]
  3321                           
  3322  03EF  0020               	movlb	0	; select bank0
  3323  03F0  0827               	movf	___fldiv@b+3,w
  3324  03F1  3980               	andlw	128
  3325  03F2  00A8               	movwf	??___fldiv
  3326  03F3  0828               	movf	??___fldiv,w
  3327  03F4  00B1               	movwf	___fldiv@sign
  3328  03F5                     l1614:	
  3329  03F5  3527               	lslf	___fldiv@b+3,w
  3330  03F6  00A8               	movwf	??___fldiv
  3331  03F7  0828               	movf	??___fldiv,w
  3332  03F8  00B8               	movwf	___fldiv@bexp
  3333  03F9                     l1616:	
  3334  03F9  1FA6               	btfss	___fldiv@b+2,7
  3335  03FA  2BFC               	goto	u1571
  3336  03FB  2BFD               	goto	u1570
  3337  03FC                     u1571:	
  3338  03FC  2BFE               	goto	l1620
  3339  03FD                     u1570:	
  3340  03FD                     l1618:	
  3341  03FD  1438               	bsf	___fldiv@bexp,0
  3342  03FE                     l1620:	
  3343  03FE  0838               	movf	___fldiv@bexp,w
  3344  03FF  1903               	btfsc	3,2
  3345  0400  2C02               	goto	u1581
  3346  0401  2C03               	goto	u1580
  3347  0402                     u1581:	
  3348  0402  2C13               	goto	l1630
  3349  0403                     u1580:	
  3350  0403                     l1622:	
  3351  0403  0A38               	incf	___fldiv@bexp,w
  3352  0404  1D03               	btfss	3,2
  3353  0405  2C07               	goto	u1591
  3354  0406  2C08               	goto	u1590
  3355  0407                     u1591:	
  3356  0407  2C10               	goto	l1626
  3357  0408                     u1590:	
  3358  0408                     l1624:	
  3359  0408  3000               	movlw	0
  3360  0409  00A7               	movwf	___fldiv@b+3
  3361  040A  3000               	movlw	0
  3362  040B  00A6               	movwf	___fldiv@b+2
  3363  040C  3000               	movlw	0
  3364  040D  00A5               	movwf	___fldiv@b+1
  3365  040E  3000               	movlw	0
  3366  040F  00A4               	movwf	___fldiv@b
  3367  0410                     l1626:	
  3368  0410  17A6               	bsf	___fldiv@b+2,7
  3369  0411                     l1628:	
  3370  0411  01A7               	clrf	___fldiv@b+3
  3371  0412  2C1B               	goto	l1632
  3372  0413                     l1630:	
  3373  0413  3000               	movlw	0
  3374  0414  00A7               	movwf	___fldiv@b+3
  3375  0415  3000               	movlw	0
  3376  0416  00A6               	movwf	___fldiv@b+2
  3377  0417  3000               	movlw	0
  3378  0418  00A5               	movwf	___fldiv@b+1
  3379  0419  3000               	movlw	0
  3380  041A  00A4               	movwf	___fldiv@b
  3381  041B                     l1632:	
  3382  041B  0823               	movf	___fldiv@a+3,w
  3383  041C  3980               	andlw	128
  3384  041D  00A8               	movwf	??___fldiv
  3385  041E  0828               	movf	??___fldiv,w
  3386  041F  06B1               	xorwf	___fldiv@sign,f
  3387  0420                     l1634:	
  3388  0420  3523               	lslf	___fldiv@a+3,w
  3389  0421  00A8               	movwf	??___fldiv
  3390  0422  0828               	movf	??___fldiv,w
  3391  0423  00B9               	movwf	___fldiv@aexp
  3392  0424                     l1636:	
  3393  0424  1FA2               	btfss	___fldiv@a+2,7
  3394  0425  2C27               	goto	u1601
  3395  0426  2C28               	goto	u1600
  3396  0427                     u1601:	
  3397  0427  2C29               	goto	l1640
  3398  0428                     u1600:	
  3399  0428                     l1638:	
  3400  0428  1439               	bsf	___fldiv@aexp,0
  3401  0429                     l1640:	
  3402  0429  0839               	movf	___fldiv@aexp,w
  3403  042A  1903               	btfsc	3,2
  3404  042B  2C2D               	goto	u1611
  3405  042C  2C2E               	goto	u1610
  3406  042D                     u1611:	
  3407  042D  2C3E               	goto	l1650
  3408  042E                     u1610:	
  3409  042E                     l1642:	
  3410  042E  0A39               	incf	___fldiv@aexp,w
  3411  042F  1D03               	btfss	3,2
  3412  0430  2C32               	goto	u1621
  3413  0431  2C33               	goto	u1620
  3414  0432                     u1621:	
  3415  0432  2C3B               	goto	l1646
  3416  0433                     u1620:	
  3417  0433                     l1644:	
  3418  0433  3000               	movlw	0
  3419  0434  00A3               	movwf	___fldiv@a+3
  3420  0435  3000               	movlw	0
  3421  0436  00A2               	movwf	___fldiv@a+2
  3422  0437  3000               	movlw	0
  3423  0438  00A1               	movwf	___fldiv@a+1
  3424  0439  3000               	movlw	0
  3425  043A  00A0               	movwf	___fldiv@a
  3426  043B                     l1646:	
  3427  043B  17A2               	bsf	___fldiv@a+2,7
  3428  043C                     l1648:	
  3429  043C  01A3               	clrf	___fldiv@a+3
  3430  043D  2C46               	goto	l721
  3431  043E                     l1650:	
  3432  043E  3000               	movlw	0
  3433  043F  00A3               	movwf	___fldiv@a+3
  3434  0440  3000               	movlw	0
  3435  0441  00A2               	movwf	___fldiv@a+2
  3436  0442  3000               	movlw	0
  3437  0443  00A1               	movwf	___fldiv@a+1
  3438  0444  3000               	movlw	0
  3439  0445  00A0               	movwf	___fldiv@a
  3440  0446                     l721:	
  3441  0446  0823               	movf	___fldiv@a+3,w
  3442  0447  0422               	iorwf	___fldiv@a+2,w
  3443  0448  0421               	iorwf	___fldiv@a+1,w
  3444  0449  0420               	iorwf	___fldiv@a,w
  3445  044A  1D03               	skipz
  3446  044B  2C4D               	goto	u1631
  3447  044C  2C4E               	goto	u1630
  3448  044D                     u1631:	
  3449  044D  2C67               	goto	l1660
  3450  044E                     u1630:	
  3451  044E                     l1652:	
  3452  044E  3000               	movlw	0
  3453  044F  00A7               	movwf	___fldiv@b+3
  3454  0450  3000               	movlw	0
  3455  0451  00A6               	movwf	___fldiv@b+2
  3456  0452  3000               	movlw	0
  3457  0453  00A5               	movwf	___fldiv@b+1
  3458  0454  3000               	movlw	0
  3459  0455  00A4               	movwf	___fldiv@b
  3460  0456  3080               	movlw	128
  3461  0457  04A6               	iorwf	___fldiv@b+2,f
  3462  0458  307F               	movlw	127
  3463  0459  04A7               	iorwf	___fldiv@b+3,f
  3464  045A                     l1654:	
  3465  045A  0831               	movf	___fldiv@sign,w
  3466  045B  00A8               	movwf	??___fldiv
  3467  045C  0828               	movf	??___fldiv,w
  3468  045D  04A7               	iorwf	___fldiv@b+3,f
  3469  045E                     l1656:	
  3470  045E  0827               	movf	___fldiv@b+3,w
  3471  045F  00A3               	movwf	?___fldiv+3
  3472  0460  0826               	movf	___fldiv@b+2,w
  3473  0461  00A2               	movwf	?___fldiv+2
  3474  0462  0825               	movf	___fldiv@b+1,w
  3475  0463  00A1               	movwf	?___fldiv+1
  3476  0464  0824               	movf	___fldiv@b,w
  3477  0465  00A0               	movwf	?___fldiv
  3478  0466  2DA2               	goto	l723
  3479  0467                     l1660:	
  3480  0467  0838               	movf	___fldiv@bexp,w
  3481  0468  1D03               	btfss	3,2
  3482  0469  2C6B               	goto	u1641
  3483  046A  2C6C               	goto	u1640
  3484  046B                     u1641:	
  3485  046B  2C75               	goto	l1666
  3486  046C                     u1640:	
  3487  046C                     l1662:	
  3488  046C  3000               	movlw	0
  3489  046D  00A3               	movwf	?___fldiv+3
  3490  046E  3000               	movlw	0
  3491  046F  00A2               	movwf	?___fldiv+2
  3492  0470  3000               	movlw	0
  3493  0471  00A1               	movwf	?___fldiv+1
  3494  0472  3000               	movlw	0
  3495  0473  00A0               	movwf	?___fldiv
  3496  0474  2DA2               	goto	l723
  3497  0475                     l1666:	
  3498  0475  0838               	movf	___fldiv@bexp,w
  3499  0476  00A8               	movwf	??___fldiv
  3500  0477  01A9               	clrf	??___fldiv+1
  3501  0478  0829               	movf	??___fldiv+1,w
  3502  0479  00AB               	movwf	??___fldiv+3
  3503  047A  0839               	movf	___fldiv@aexp,w
  3504  047B  0228               	subwf	??___fldiv,w
  3505  047C  00AA               	movwf	??___fldiv+2
  3506  047D  1C03               	skipc
  3507  047E  03AB               	decf	??___fldiv+3,f
  3508  047F  082A               	movf	??___fldiv+2,w
  3509  0480  3E7F               	addlw	127
  3510  0481  00B2               	movwf	___fldiv@new_exp
  3511  0482  3000               	movlw	0
  3512  0483  3D2B               	addwfc	??___fldiv+3,w
  3513  0484  00B3               	movwf	___fldiv@new_exp+1
  3514  0485                     l1668:	
  3515  0485  0827               	movf	___fldiv@b+3,w
  3516  0486  00B0               	movwf	___fldiv@rem+3
  3517  0487  0826               	movf	___fldiv@b+2,w
  3518  0488  00AF               	movwf	___fldiv@rem+2
  3519  0489  0825               	movf	___fldiv@b+1,w
  3520  048A  00AE               	movwf	___fldiv@rem+1
  3521  048B  0824               	movf	___fldiv@b,w
  3522  048C  00AD               	movwf	___fldiv@rem
  3523  048D                     l1670:	
  3524  048D  3000               	movlw	0
  3525  048E  00A7               	movwf	___fldiv@b+3
  3526  048F  3000               	movlw	0
  3527  0490  00A6               	movwf	___fldiv@b+2
  3528  0491  3000               	movlw	0
  3529  0492  00A5               	movwf	___fldiv@b+1
  3530  0493  3000               	movlw	0
  3531  0494  00A4               	movwf	___fldiv@b
  3532  0495                     l1672:	
  3533  0495  3000               	movlw	0
  3534  0496  00B7               	movwf	___fldiv@grs+3
  3535  0497  3000               	movlw	0
  3536  0498  00B6               	movwf	___fldiv@grs+2
  3537  0499  3000               	movlw	0
  3538  049A  00B5               	movwf	___fldiv@grs+1
  3539  049B  3000               	movlw	0
  3540  049C  00B4               	movwf	___fldiv@grs
  3541  049D                     l1674:	
  3542  049D  01B9               	clrf	___fldiv@aexp
  3543  049E  2CDD               	goto	l1694
  3544  049F                     l1676:	
  3545  049F  0839               	movf	___fldiv@aexp,w
  3546  04A0  1903               	btfsc	3,2
  3547  04A1  2CA3               	goto	u1651
  3548  04A2  2CA4               	goto	u1650
  3549  04A3                     u1651:	
  3550  04A3  2CBE               	goto	l1686
  3551  04A4                     u1650:	
  3552  04A4                     l1678:	
  3553  04A4  3001               	movlw	1
  3554  04A5                     u1665:	
  3555  04A5  35AD               	lslf	___fldiv@rem,f
  3556  04A6  0DAE               	rlf	___fldiv@rem+1,f
  3557  04A7  0DAF               	rlf	___fldiv@rem+2,f
  3558  04A8  0DB0               	rlf	___fldiv@rem+3,f
  3559  04A9  0B89               	decfsz	9,f
  3560  04AA  2CA5               	goto	u1665
  3561  04AB  3001               	movlw	1
  3562  04AC                     u1675:	
  3563  04AC  35A4               	lslf	___fldiv@b,f
  3564  04AD  0DA5               	rlf	___fldiv@b+1,f
  3565  04AE  0DA6               	rlf	___fldiv@b+2,f
  3566  04AF  0DA7               	rlf	___fldiv@b+3,f
  3567  04B0  0B89               	decfsz	9,f
  3568  04B1  2CAC               	goto	u1675
  3569  04B2                     l1680:	
  3570  04B2  1FB7               	btfss	___fldiv@grs+3,7
  3571  04B3  2CB5               	goto	u1681
  3572  04B4  2CB6               	goto	u1680
  3573  04B5                     u1681:	
  3574  04B5  2CB7               	goto	l1684
  3575  04B6                     u1680:	
  3576  04B6                     l1682:	
  3577  04B6  1424               	bsf	___fldiv@b,0
  3578  04B7                     l1684:	
  3579  04B7  3001               	movlw	1
  3580  04B8                     u1695:	
  3581  04B8  35B4               	lslf	___fldiv@grs,f
  3582  04B9  0DB5               	rlf	___fldiv@grs+1,f
  3583  04BA  0DB6               	rlf	___fldiv@grs+2,f
  3584  04BB  0DB7               	rlf	___fldiv@grs+3,f
  3585  04BC  0B89               	decfsz	9,f
  3586  04BD  2CB8               	goto	u1695
  3587  04BE                     l1686:	
  3588  04BE  0823               	movf	___fldiv@a+3,w
  3589  04BF  0230               	subwf	___fldiv@rem+3,w
  3590  04C0  1D03               	skipz
  3591  04C1  2CCC               	goto	u1705
  3592  04C2  0822               	movf	___fldiv@a+2,w
  3593  04C3  022F               	subwf	___fldiv@rem+2,w
  3594  04C4  1D03               	skipz
  3595  04C5  2CCC               	goto	u1705
  3596  04C6  0821               	movf	___fldiv@a+1,w
  3597  04C7  022E               	subwf	___fldiv@rem+1,w
  3598  04C8  1D03               	skipz
  3599  04C9  2CCC               	goto	u1705
  3600  04CA  0820               	movf	___fldiv@a,w
  3601  04CB  022D               	subwf	___fldiv@rem,w
  3602  04CC                     u1705:	
  3603  04CC  1C03               	skipc
  3604  04CD  2CCF               	goto	u1701
  3605  04CE  2CD0               	goto	u1700
  3606  04CF                     u1701:	
  3607  04CF  2CD9               	goto	l1692
  3608  04D0                     u1700:	
  3609  04D0                     l1688:	
  3610  04D0  1737               	bsf	___fldiv@grs+3,6
  3611  04D1                     l1690:	
  3612  04D1  0820               	movf	___fldiv@a,w
  3613  04D2  02AD               	subwf	___fldiv@rem,f
  3614  04D3  0821               	movf	___fldiv@a+1,w
  3615  04D4  3BAE               	subwfb	___fldiv@rem+1,f
  3616  04D5  0822               	movf	___fldiv@a+2,w
  3617  04D6  3BAF               	subwfb	___fldiv@rem+2,f
  3618  04D7  0823               	movf	___fldiv@a+3,w
  3619  04D8  3BB0               	subwfb	___fldiv@rem+3,f
  3620  04D9                     l1692:	
  3621  04D9  3001               	movlw	1
  3622  04DA  00A8               	movwf	??___fldiv
  3623  04DB  0828               	movf	??___fldiv,w
  3624  04DC  07B9               	addwf	___fldiv@aexp,f
  3625  04DD                     l1694:	
  3626  04DD  301A               	movlw	26
  3627  04DE  0239               	subwf	___fldiv@aexp,w
  3628  04DF  1C03               	skipc
  3629  04E0  2CE2               	goto	u1711
  3630  04E1  2CE3               	goto	u1710
  3631  04E2                     u1711:	
  3632  04E2  2C9F               	goto	l1676
  3633  04E3                     u1710:	
  3634  04E3                     l1696:	
  3635  04E3  0830               	movf	___fldiv@rem+3,w
  3636  04E4  042F               	iorwf	___fldiv@rem+2,w
  3637  04E5  042E               	iorwf	___fldiv@rem+1,w
  3638  04E6  042D               	iorwf	___fldiv@rem,w
  3639  04E7  1903               	skipnz
  3640  04E8  2CEA               	goto	u1721
  3641  04E9  2CEB               	goto	u1720
  3642  04EA                     u1721:	
  3643  04EA  2D04               	goto	l1710
  3644  04EB                     u1720:	
  3645  04EB                     l1698:	
  3646  04EB  1434               	bsf	___fldiv@grs,0
  3647  04EC  2D04               	goto	l1710
  3648  04ED                     l1700:	
  3649  04ED  3001               	movlw	1
  3650  04EE                     u1735:	
  3651  04EE  35A4               	lslf	___fldiv@b,f
  3652  04EF  0DA5               	rlf	___fldiv@b+1,f
  3653  04F0  0DA6               	rlf	___fldiv@b+2,f
  3654  04F1  0DA7               	rlf	___fldiv@b+3,f
  3655  04F2  0B89               	decfsz	9,f
  3656  04F3  2CEE               	goto	u1735
  3657  04F4                     l1702:	
  3658  04F4  1FB7               	btfss	___fldiv@grs+3,7
  3659  04F5  2CF7               	goto	u1741
  3660  04F6  2CF8               	goto	u1740
  3661  04F7                     u1741:	
  3662  04F7  2CF9               	goto	l1706
  3663  04F8                     u1740:	
  3664  04F8                     l1704:	
  3665  04F8  1424               	bsf	___fldiv@b,0
  3666  04F9                     l1706:	
  3667  04F9  3001               	movlw	1
  3668  04FA                     u1755:	
  3669  04FA  35B4               	lslf	___fldiv@grs,f
  3670  04FB  0DB5               	rlf	___fldiv@grs+1,f
  3671  04FC  0DB6               	rlf	___fldiv@grs+2,f
  3672  04FD  0DB7               	rlf	___fldiv@grs+3,f
  3673  04FE  0B89               	decfsz	9,f
  3674  04FF  2CFA               	goto	u1755
  3675  0500                     l1708:	
  3676  0500  30FF               	movlw	255
  3677  0501  07B2               	addwf	___fldiv@new_exp,f
  3678  0502  30FF               	movlw	255
  3679  0503  3DB3               	addwfc	___fldiv@new_exp+1,f
  3680  0504                     l1710:	
  3681  0504  1FA6               	btfss	___fldiv@b+2,7
  3682  0505  2D07               	goto	u1761
  3683  0506  2D08               	goto	u1760
  3684  0507                     u1761:	
  3685  0507  2CED               	goto	l1700
  3686  0508                     u1760:	
  3687  0508                     l1712:	
  3688  0508  01B9               	clrf	___fldiv@aexp
  3689  0509                     l1714:	
  3690  0509  1FB7               	btfss	___fldiv@grs+3,7
  3691  050A  2D0C               	goto	u1771
  3692  050B  2D0D               	goto	u1770
  3693  050C                     u1771:	
  3694  050C  2D29               	goto	l1722
  3695  050D                     u1770:	
  3696  050D                     l1716:	
  3697  050D  30FF               	movlw	255
  3698  050E  0534               	andwf	___fldiv@grs,w
  3699  050F  00A8               	movwf	??___fldiv
  3700  0510  30FF               	movlw	255
  3701  0511  0535               	andwf	___fldiv@grs+1,w
  3702  0512  00A9               	movwf	??___fldiv+1
  3703  0513  30FF               	movlw	255
  3704  0514  0536               	andwf	___fldiv@grs+2,w
  3705  0515  00AA               	movwf	??___fldiv+2
  3706  0516  307F               	movlw	127
  3707  0517  0537               	andwf	___fldiv@grs+3,w
  3708  0518  00AB               	movwf	??___fldiv+3
  3709  0519  082B               	movf	??___fldiv+3,w
  3710  051A  042A               	iorwf	??___fldiv+2,w
  3711  051B  0429               	iorwf	??___fldiv+1,w
  3712  051C  0428               	iorwf	??___fldiv,w
  3713  051D  1903               	skipnz
  3714  051E  2D20               	goto	u1781
  3715  051F  2D21               	goto	u1780
  3716  0520                     u1781:	
  3717  0520  2D24               	goto	l737
  3718  0521                     u1780:	
  3719  0521                     l1718:	
  3720  0521  01B9               	clrf	___fldiv@aexp
  3721  0522  0AB9               	incf	___fldiv@aexp,f
  3722  0523  2D29               	goto	l1722
  3723  0524                     l737:	
  3724  0524  1C24               	btfss	___fldiv@b,0
  3725  0525  2D27               	goto	u1791
  3726  0526  2D28               	goto	u1790
  3727  0527                     u1791:	
  3728  0527  2D29               	goto	l1722
  3729  0528                     u1790:	
  3730  0528  2D21               	goto	l1718
  3731  0529                     l1722:	
  3732  0529  0839               	movf	___fldiv@aexp,w
  3733  052A  1903               	btfsc	3,2
  3734  052B  2D2D               	goto	u1801
  3735  052C  2D2E               	goto	u1800
  3736  052D                     u1801:	
  3737  052D  2D56               	goto	l1732
  3738  052E                     u1800:	
  3739  052E                     l1724:	
  3740  052E  3001               	movlw	1
  3741  052F  07A4               	addwf	___fldiv@b,f
  3742  0530  3000               	movlw	0
  3743  0531  3DA5               	addwfc	___fldiv@b+1,f
  3744  0532  3000               	movlw	0
  3745  0533  3DA6               	addwfc	___fldiv@b+2,f
  3746  0534  3000               	movlw	0
  3747  0535  3DA7               	addwfc	___fldiv@b+3,f
  3748  0536                     l1726:	
  3749  0536  1C27               	btfss	___fldiv@b+3,0
  3750  0537  2D39               	goto	u1811
  3751  0538  2D3A               	goto	u1810
  3752  0539                     u1811:	
  3753  0539  2D56               	goto	l1732
  3754  053A                     u1810:	
  3755  053A                     l1728:	
  3756  053A  0824               	movf	___fldiv@b,w
  3757  053B  00A8               	movwf	??___fldiv
  3758  053C  0825               	movf	___fldiv@b+1,w
  3759  053D  00A9               	movwf	??___fldiv+1
  3760  053E  0826               	movf	___fldiv@b+2,w
  3761  053F  00AA               	movwf	??___fldiv+2
  3762  0540  0827               	movf	___fldiv@b+3,w
  3763  0541  00AB               	movwf	??___fldiv+3
  3764  0542  3001               	movlw	1
  3765  0543  00AC               	movwf	??___fldiv+4
  3766  0544                     u1825:	
  3767  0544  37AB               	asrf	??___fldiv+3,f
  3768  0545  0CAA               	rrf	??___fldiv+2,f
  3769  0546  0CA9               	rrf	??___fldiv+1,f
  3770  0547  0CA8               	rrf	??___fldiv,f
  3771  0548                     u1820:	
  3772  0548  0BAC               	decfsz	??___fldiv+4,f
  3773  0549  2D44               	goto	u1825
  3774  054A  082B               	movf	??___fldiv+3,w
  3775  054B  00A7               	movwf	___fldiv@b+3
  3776  054C  082A               	movf	??___fldiv+2,w
  3777  054D  00A6               	movwf	___fldiv@b+2
  3778  054E  0829               	movf	??___fldiv+1,w
  3779  054F  00A5               	movwf	___fldiv@b+1
  3780  0550  0828               	movf	??___fldiv,w
  3781  0551  00A4               	movwf	___fldiv@b
  3782  0552                     l1730:	
  3783  0552  3001               	movlw	1
  3784  0553  07B2               	addwf	___fldiv@new_exp,f
  3785  0554  3000               	movlw	0
  3786  0555  3DB3               	addwfc	___fldiv@new_exp+1,f
  3787  0556                     l1732:	
  3788  0556  0833               	movf	___fldiv@new_exp+1,w
  3789  0557  3A80               	xorlw	128
  3790  0558  00A8               	movwf	??___fldiv
  3791  0559  3080               	movlw	128
  3792  055A  0228               	subwf	??___fldiv,w
  3793  055B  1D03               	skipz
  3794  055C  2D5F               	goto	u1835
  3795  055D  30FF               	movlw	255
  3796  055E  0232               	subwf	___fldiv@new_exp,w
  3797  055F                     u1835:	
  3798  055F  1C03               	skipc
  3799  0560  2D62               	goto	u1831
  3800  0561  2D63               	goto	u1830
  3801  0562                     u1831:	
  3802  0562  2D70               	goto	l742
  3803  0563                     u1830:	
  3804  0563                     l1734:	
  3805  0563  30FF               	movlw	255
  3806  0564  0020               	movlb	0	; select bank0
  3807  0565  00B2               	movwf	___fldiv@new_exp
  3808  0566  3000               	movlw	0
  3809  0567  00B3               	movwf	___fldiv@new_exp+1
  3810  0568  3000               	movlw	0
  3811  0569  00A7               	movwf	___fldiv@b+3
  3812  056A  3000               	movlw	0
  3813  056B  00A6               	movwf	___fldiv@b+2
  3814  056C  3000               	movlw	0
  3815  056D  00A5               	movwf	___fldiv@b+1
  3816  056E  3000               	movlw	0
  3817  056F  00A4               	movwf	___fldiv@b
  3818  0570                     l742:	
  3819  0570  0020               	movlb	0	; select bank0
  3820  0571  0833               	movf	___fldiv@new_exp+1,w
  3821  0572  3A80               	xorlw	128
  3822  0573  00A8               	movwf	??___fldiv
  3823  0574  3080               	movlw	128
  3824  0575  0228               	subwf	??___fldiv,w
  3825  0576  1D03               	skipz
  3826  0577  2D7A               	goto	u1845
  3827  0578  3001               	movlw	1
  3828  0579  0232               	subwf	___fldiv@new_exp,w
  3829  057A                     u1845:	
  3830  057A  1803               	skipnc
  3831  057B  2D7D               	goto	u1841
  3832  057C  2D7E               	goto	u1840
  3833  057D                     u1841:	
  3834  057D  2D8A               	goto	l743
  3835  057E                     u1840:	
  3836  057E                     l1736:	
  3837  057E  0020               	movlb	0	; select bank0
  3838  057F  01B2               	clrf	___fldiv@new_exp
  3839  0580  01B3               	clrf	___fldiv@new_exp+1
  3840  0581                     l1738:	
  3841  0581  3000               	movlw	0
  3842  0582  00A7               	movwf	___fldiv@b+3
  3843  0583  3000               	movlw	0
  3844  0584  00A6               	movwf	___fldiv@b+2
  3845  0585  3000               	movlw	0
  3846  0586  00A5               	movwf	___fldiv@b+1
  3847  0587  3000               	movlw	0
  3848  0588  00A4               	movwf	___fldiv@b
  3849  0589                     l1740:	
  3850  0589  01B1               	clrf	___fldiv@sign
  3851  058A                     l743:	
  3852  058A  0020               	movlb	0	; select bank0
  3853  058B  0832               	movf	___fldiv@new_exp,w
  3854  058C  00A8               	movwf	??___fldiv
  3855  058D  0828               	movf	??___fldiv,w
  3856  058E  00B8               	movwf	___fldiv@bexp
  3857  058F                     l1742:	
  3858  058F  1C38               	btfss	___fldiv@bexp,0
  3859  0590  2D92               	goto	u1851
  3860  0591  2D93               	goto	u1850
  3861  0592                     u1851:	
  3862  0592  2D95               	goto	l1746
  3863  0593                     u1850:	
  3864  0593                     l1744:	
  3865  0593  17A6               	bsf	___fldiv@b+2,7
  3866  0594  2D99               	goto	l745
  3867  0595                     l1746:	
  3868  0595  307F               	movlw	127
  3869  0596  00A8               	movwf	??___fldiv
  3870  0597  0828               	movf	??___fldiv,w
  3871  0598  05A6               	andwf	___fldiv@b+2,f
  3872  0599                     l745:	
  3873  0599  3638               	lsrf	___fldiv@bexp,w
  3874  059A  00A8               	movwf	??___fldiv
  3875  059B  0828               	movf	??___fldiv,w
  3876  059C  00A7               	movwf	___fldiv@b+3
  3877  059D  0831               	movf	___fldiv@sign,w
  3878  059E  00A8               	movwf	??___fldiv
  3879  059F  0828               	movf	??___fldiv,w
  3880  05A0  04A7               	iorwf	___fldiv@b+3,f
  3881  05A1  2C5E               	goto	l1656
  3882  05A2                     l723:	
  3883  05A2  0008               	return
  3884  05A3                     __end_of___fldiv:	
  3885                           
  3886                           	psect	text10
  3887  0022                     __ptext10:	
  3888 ;; *************** function _SYSTEM_Initialize *****************
  3889 ;; Defined at:
  3890 ;;		line 50 in file "mcc_generated_files/mcc.c"
  3891 ;; Parameters:    Size  Location     Type
  3892 ;;		None
  3893 ;; Auto vars:     Size  Location     Type
  3894 ;;		None
  3895 ;; Return value:  Size  Location     Type
  3896 ;;                  1    wreg      void 
  3897 ;; Registers used:
  3898 ;;		wreg, status,2, status,0, pclath, cstack
  3899 ;; Tracked objects:
  3900 ;;		On entry : 0/0
  3901 ;;		On exit  : 0/0
  3902 ;;		Unchanged: 0/0
  3903 ;; Data sizes:     COMMON   BANK0   BANK1   BANK2   BANK3   BANK4   BANK5   BANK6   BANK7   BANK8   BANK9  BANK10  BANK1
      +1  BANK12
  3904 ;;      Params:         0       0       0       0       0       0       0       0       0       0       0       0       
      +0       0
  3905 ;;      Locals:         0       0       0       0       0       0       0       0       0       0       0       0       
      +0       0
  3906 ;;      Temps:          0       0       0       0       0       0       0       0       0       0       0       0       
      +0       0
  3907 ;;      Totals:         0       0       0       0       0       0       0       0       0       0       0       0       
      +0       0
  3908 ;;Total ram usage:        0 bytes
  3909 ;; Hardware stack levels used:    1
  3910 ;; Hardware stack levels required when called:    1
  3911 ;; This function calls:
  3912 ;;		_ADC_Initialize
  3913 ;;		_OSCILLATOR_Initialize
  3914 ;;		_PIN_MANAGER_Initialize
  3915 ;;		_WDT_Initialize
  3916 ;; This function is called by:
  3917 ;;		_main
  3918 ;; This function uses a non-reentrant model
  3919 ;;
  3920                           
  3921                           
  3922                           ;psect for function _SYSTEM_Initialize
  3923  0022                     _SYSTEM_Initialize:	
  3924  0022                     l1536:	
  3925                           ;incstack = 0
  3926                           ; Regs used in _SYSTEM_Initialize: [wreg+status,2+status,0+pclath+cstack]
  3927                           
  3928                           
  3929                           ;mcc_generated_files/mcc.c: 53:     PIN_MANAGER_Initialize();
  3930  0022  3180  202F  3180   	fcall	_PIN_MANAGER_Initialize
  3931                           
  3932                           ;mcc_generated_files/mcc.c: 54:     OSCILLATOR_Initialize();
  3933  0025  3180  2014  3180   	fcall	_OSCILLATOR_Initialize
  3934                           
  3935                           ;mcc_generated_files/mcc.c: 55:     WDT_Initialize();
  3936  0028  3180  2010  3180   	fcall	_WDT_Initialize
  3937                           
  3938                           ;mcc_generated_files/mcc.c: 56:     ADC_Initialize();
  3939  002B  3180  201A  3180   	fcall	_ADC_Initialize
  3940  002E                     l17:	
  3941  002E  0008               	return
  3942  002F                     __end_of_SYSTEM_Initialize:	
  3943                           
  3944                           	psect	text11
  3945  0010                     __ptext11:	
  3946 ;; *************** function _WDT_Initialize *****************
  3947 ;; Defined at:
  3948 ;;		line 67 in file "mcc_generated_files/mcc.c"
  3949 ;; Parameters:    Size  Location     Type
  3950 ;;		None
  3951 ;; Auto vars:     Size  Location     Type
  3952 ;;		None
  3953 ;; Return value:  Size  Location     Type
  3954 ;;                  1    wreg      void 
  3955 ;; Registers used:
  3956 ;;		wreg
  3957 ;; Tracked objects:
  3958 ;;		On entry : 0/0
  3959 ;;		On exit  : 0/0
  3960 ;;		Unchanged: 0/0
  3961 ;; Data sizes:     COMMON   BANK0   BANK1   BANK2   BANK3   BANK4   BANK5   BANK6   BANK7   BANK8   BANK9  BANK10  BANK1
      +1  BANK12
  3962 ;;      Params:         0       0       0       0       0       0       0       0       0       0       0       0       
      +0       0
  3963 ;;      Locals:         0       0       0       0       0       0       0       0       0       0       0       0       
      +0       0
  3964 ;;      Temps:          0       0       0       0       0       0       0       0       0       0       0       0       
      +0       0
  3965 ;;      Totals:         0       0       0       0       0       0       0       0       0       0       0       0       
      +0       0
  3966 ;;Total ram usage:        0 bytes
  3967 ;; Hardware stack levels used:    1
  3968 ;; This function calls:
  3969 ;;		Nothing
  3970 ;; This function is called by:
  3971 ;;		_SYSTEM_Initialize
  3972 ;; This function uses a non-reentrant model
  3973 ;;
  3974                           
  3975                           
  3976                           ;psect for function _WDT_Initialize
  3977  0010                     _WDT_Initialize:	
  3978  0010                     l1412:	
  3979                           ;incstack = 0
  3980                           ; Regs used in _WDT_Initialize: [wreg]
  3981                           
  3982                           
  3983                           ;mcc_generated_files/mcc.c: 70:     WDTCON = 0x16;
  3984  0010  3016               	movlw	22
  3985  0011  0021               	movlb	1	; select bank1
  3986  0012  0097               	movwf	23	;volatile
  3987  0013                     l23:	
  3988  0013  0008               	return
  3989  0014                     __end_of_WDT_Initialize:	
  3990                           
  3991                           	psect	text12
  3992  002F                     __ptext12:	
  3993 ;; *************** function _PIN_MANAGER_Initialize *****************
  3994 ;; Defined at:
  3995 ;;		line 55 in file "mcc_generated_files/pin_manager.c"
  3996 ;; Parameters:    Size  Location     Type
  3997 ;;		None
  3998 ;; Auto vars:     Size  Location     Type
  3999 ;;		None
  4000 ;; Return value:  Size  Location     Type
  4001 ;;                  1    wreg      void 
  4002 ;; Registers used:
  4003 ;;		wreg, status,2
  4004 ;; Tracked objects:
  4005 ;;		On entry : 0/0
  4006 ;;		On exit  : 0/0
  4007 ;;		Unchanged: 0/0
  4008 ;; Data sizes:     COMMON   BANK0   BANK1   BANK2   BANK3   BANK4   BANK5   BANK6   BANK7   BANK8   BANK9  BANK10  BANK1
      +1  BANK12
  4009 ;;      Params:         0       0       0       0       0       0       0       0       0       0       0       0       
      +0       0
  4010 ;;      Locals:         0       0       0       0       0       0       0       0       0       0       0       0       
      +0       0
  4011 ;;      Temps:          0       0       0       0       0       0       0       0       0       0       0       0       
      +0       0
  4012 ;;      Totals:         0       0       0       0       0       0       0       0       0       0       0       0       
      +0       0
  4013 ;;Total ram usage:        0 bytes
  4014 ;; Hardware stack levels used:    1
  4015 ;; This function calls:
  4016 ;;		Nothing
  4017 ;; This function is called by:
  4018 ;;		_SYSTEM_Initialize
  4019 ;; This function uses a non-reentrant model
  4020 ;;
  4021                           
  4022                           
  4023                           ;psect for function _PIN_MANAGER_Initialize
  4024  002F                     _PIN_MANAGER_Initialize:	
  4025  002F                     l1396:	
  4026                           ;incstack = 0
  4027                           ; Regs used in _PIN_MANAGER_Initialize: [wreg+status,2]
  4028                           
  4029                           
  4030                           ;mcc_generated_files/pin_manager.c: 60:     LATA = 0x00;
  4031  002F  0022               	movlb	2	; select bank2
  4032  0030  018C               	clrf	12	;volatile
  4033                           
  4034                           ;mcc_generated_files/pin_manager.c: 61:     LATB = 0x00;
  4035  0031  018D               	clrf	13	;volatile
  4036                           
  4037                           ;mcc_generated_files/pin_manager.c: 62:     LATC = 0x00;
  4038  0032  018E               	clrf	14	;volatile
  4039  0033                     l1398:	
  4040                           
  4041                           ;mcc_generated_files/pin_manager.c: 67:     TRISA = 0x0F;
  4042  0033  300F               	movlw	15
  4043  0034  0021               	movlb	1	; select bank1
  4044  0035  008C               	movwf	12	;volatile
  4045  0036                     l1400:	
  4046                           
  4047                           ;mcc_generated_files/pin_manager.c: 68:     TRISB = 0xFF;
  4048  0036  30FF               	movlw	255
  4049  0037  008D               	movwf	13	;volatile
  4050                           
  4051                           ;mcc_generated_files/pin_manager.c: 69:     TRISC = 0x00;
  4052  0038  018E               	clrf	14	;volatile
  4053                           
  4054                           ;mcc_generated_files/pin_manager.c: 74:     ANSELC = 0x00;
  4055  0039  0023               	movlb	3	; select bank3
  4056  003A  018E               	clrf	14	;volatile
  4057  003B                     l1402:	
  4058                           
  4059                           ;mcc_generated_files/pin_manager.c: 75:     ANSELB = 0x3F;
  4060  003B  303F               	movlw	63
  4061  003C  008D               	movwf	13	;volatile
  4062  003D                     l1404:	
  4063                           
  4064                           ;mcc_generated_files/pin_manager.c: 76:     ANSELA = 0x0F;
  4065  003D  300F               	movlw	15
  4066  003E  008C               	movwf	12	;volatile
  4067                           
  4068                           ;mcc_generated_files/pin_manager.c: 81:     WPUE = 0x00;
  4069  003F  0024               	movlb	4	; select bank4
  4070  0040  0190               	clrf	16	;volatile
  4071                           
  4072                           ;mcc_generated_files/pin_manager.c: 82:     WPUB = 0x00;
  4073  0041  018D               	clrf	13	;volatile
  4074  0042                     l1406:	
  4075                           
  4076                           ;mcc_generated_files/pin_manager.c: 83:     OPTION_REGbits.nWPUEN = 1;
  4077  0042  0021               	movlb	1	; select bank1
  4078  0043  1795               	bsf	21,7	;volatile
  4079                           
  4080                           ;mcc_generated_files/pin_manager.c: 89:     APFCON = 0x00;
  4081  0044  0022               	movlb	2	; select bank2
  4082  0045  019D               	clrf	29	;volatile
  4083  0046                     l52:	
  4084  0046  0008               	return
  4085  0047                     __end_of_PIN_MANAGER_Initialize:	
  4086                           
  4087                           	psect	text13
  4088  0014                     __ptext13:	
  4089 ;; *************** function _OSCILLATOR_Initialize *****************
  4090 ;; Defined at:
  4091 ;;		line 59 in file "mcc_generated_files/mcc.c"
  4092 ;; Parameters:    Size  Location     Type
  4093 ;;		None
  4094 ;; Auto vars:     Size  Location     Type
  4095 ;;		None
  4096 ;; Return value:  Size  Location     Type
  4097 ;;                  1    wreg      void 
  4098 ;; Registers used:
  4099 ;;		wreg, status,2
  4100 ;; Tracked objects:
  4101 ;;		On entry : 0/0
  4102 ;;		On exit  : 0/0
  4103 ;;		Unchanged: 0/0
  4104 ;; Data sizes:     COMMON   BANK0   BANK1   BANK2   BANK3   BANK4   BANK5   BANK6   BANK7   BANK8   BANK9  BANK10  BANK1
      +1  BANK12
  4105 ;;      Params:         0       0       0       0       0       0       0       0       0       0       0       0       
      +0       0
  4106 ;;      Locals:         0       0       0       0       0       0       0       0       0       0       0       0       
      +0       0
  4107 ;;      Temps:          0       0       0       0       0       0       0       0       0       0       0       0       
      +0       0
  4108 ;;      Totals:         0       0       0       0       0       0       0       0       0       0       0       0       
      +0       0
  4109 ;;Total ram usage:        0 bytes
  4110 ;; Hardware stack levels used:    1
  4111 ;; This function calls:
  4112 ;;		Nothing
  4113 ;; This function is called by:
  4114 ;;		_SYSTEM_Initialize
  4115 ;; This function uses a non-reentrant model
  4116 ;;
  4117                           
  4118                           
  4119                           ;psect for function _OSCILLATOR_Initialize
  4120  0014                     _OSCILLATOR_Initialize:	
  4121  0014                     l1408:	
  4122                           ;incstack = 0
  4123                           ; Regs used in _OSCILLATOR_Initialize: [wreg+status,2]
  4124                           
  4125                           
  4126                           ;mcc_generated_files/mcc.c: 62:     OSCCON = 0x78;
  4127  0014  3078               	movlw	120
  4128  0015  0021               	movlb	1	; select bank1
  4129  0016  0099               	movwf	25	;volatile
  4130  0017                     l1410:	
  4131                           
  4132                           ;mcc_generated_files/mcc.c: 64:     BORCON = 0x00;
  4133  0017  0022               	movlb	2	; select bank2
  4134  0018  0196               	clrf	22	;volatile
  4135  0019                     l20:	
  4136  0019  0008               	return
  4137  001A                     __end_of_OSCILLATOR_Initialize:	
  4138                           
  4139                           	psect	text14
  4140  001A                     __ptext14:	
  4141 ;; *************** function _ADC_Initialize *****************
  4142 ;; Defined at:
  4143 ;;		line 67 in file "mcc_generated_files/adc.c"
  4144 ;; Parameters:    Size  Location     Type
  4145 ;;		None
  4146 ;; Auto vars:     Size  Location     Type
  4147 ;;		None
  4148 ;; Return value:  Size  Location     Type
  4149 ;;                  1    wreg      void 
  4150 ;; Registers used:
  4151 ;;		wreg, status,2
  4152 ;; Tracked objects:
  4153 ;;		On entry : 0/0
  4154 ;;		On exit  : 0/0
  4155 ;;		Unchanged: 0/0
  4156 ;; Data sizes:     COMMON   BANK0   BANK1   BANK2   BANK3   BANK4   BANK5   BANK6   BANK7   BANK8   BANK9  BANK10  BANK1
      +1  BANK12
  4157 ;;      Params:         0       0       0       0       0       0       0       0       0       0       0       0       
      +0       0
  4158 ;;      Locals:         0       0       0       0       0       0       0       0       0       0       0       0       
      +0       0
  4159 ;;      Temps:          0       0       0       0       0       0       0       0       0       0       0       0       
      +0       0
  4160 ;;      Totals:         0       0       0       0       0       0       0       0       0       0       0       0       
      +0       0
  4161 ;;Total ram usage:        0 bytes
  4162 ;; Hardware stack levels used:    1
  4163 ;; This function calls:
  4164 ;;		Nothing
  4165 ;; This function is called by:
  4166 ;;		_SYSTEM_Initialize
  4167 ;; This function uses a non-reentrant model
  4168 ;;
  4169                           
  4170                           
  4171                           ;psect for function _ADC_Initialize
  4172  001A                     _ADC_Initialize:	
  4173  001A                     l1414:	
  4174                           ;incstack = 0
  4175                           ; Regs used in _ADC_Initialize: [wreg+status,2]
  4176                           
  4177                           
  4178                           ;mcc_generated_files/adc.c: 72:     ADCON0 = 0x01;
  4179  001A  3001               	movlw	1
  4180  001B  0021               	movlb	1	; select bank1
  4181  001C  009D               	movwf	29	;volatile
  4182                           
  4183                           ;mcc_generated_files/adc.c: 75:     ADCON1 = 0x80;
  4184  001D  3080               	movlw	128
  4185  001E  009E               	movwf	30	;volatile
  4186  001F                     l1416:	
  4187                           
  4188                           ;mcc_generated_files/adc.c: 78:     ADRESL = 0x00;
  4189  001F  019B               	clrf	27	;volatile
  4190  0020                     l1418:	
  4191                           
  4192                           ;mcc_generated_files/adc.c: 81:     ADRESH = 0x00;
  4193  0020  019C               	clrf	28	;volatile
  4194  0021                     l275:	
  4195  0021  0008               	return
  4196  0022                     __end_of_ADC_Initialize:	
  4197                           
  4198                           	psect	text15
  4199  0047                     __ptext15:	
  4200 ;; *************** function _ADC_GetConversion *****************
  4201 ;; Defined at:
  4202 ;;		line 112 in file "mcc_generated_files/adc.c"
  4203 ;; Parameters:    Size  Location     Type
  4204 ;;  channel         1    wreg     enum E1681
  4205 ;; Auto vars:     Size  Location     Type
  4206 ;;  channel         1    3[COMMON] enum E1681
  4207 ;; Return value:  Size  Location     Type
  4208 ;;                  2    0[COMMON] unsigned short 
  4209 ;; Registers used:
  4210 ;;		wreg, status,2, status,0
  4211 ;; Tracked objects:
  4212 ;;		On entry : 0/0
  4213 ;;		On exit  : 0/0
  4214 ;;		Unchanged: 0/0
  4215 ;; Data sizes:     COMMON   BANK0   BANK1   BANK2   BANK3   BANK4   BANK5   BANK6   BANK7   BANK8   BANK9  BANK10  BANK1
      +1  BANK12
  4216 ;;      Params:         2       0       0       0       0       0       0       0       0       0       0       0       
      +0       0
  4217 ;;      Locals:         1       0       0       0       0       0       0       0       0       0       0       0       
      +0       0
  4218 ;;      Temps:          1       0       0       0       0       0       0       0       0       0       0       0       
      +0       0
  4219 ;;      Totals:         4       0       0       0       0       0       0       0       0       0       0       0       
      +0       0
  4220 ;;Total ram usage:        4 bytes
  4221 ;; Hardware stack levels used:    1
  4222 ;; This function calls:
  4223 ;;		Nothing
  4224 ;; This function is called by:
  4225 ;;		_main
  4226 ;; This function uses a non-reentrant model
  4227 ;;
  4228                           
  4229                           
  4230                           ;psect for function _ADC_GetConversion
  4231  0047                     _ADC_GetConversion:	
  4232                           
  4233                           ;incstack = 0
  4234                           ; Regs used in _ADC_GetConversion: [wreg+status,2+status,0]
  4235                           ;ADC_GetConversion@channel stored from wreg
  4236  0047  00F3               	movwf	ADC_GetConversion@channel
  4237  0048                     l1564:	
  4238                           
  4239                           ;mcc_generated_files/adc.c: 112: adc_result_t ADC_GetConversion(adc_channel_t channel);m
      +                          cc_generated_files/adc.c: 113: {;mcc_generated_files/adc.c: 115:     ADCON0bits.CHS = ch
      +                          annel;
  4240  0048  0873               	movf	ADC_GetConversion@channel,w
  4241  0049  00F2               	movwf	??_ADC_GetConversion
  4242  004A  0DF2               	rlf	??_ADC_GetConversion,f
  4243  004B  0DF2               	rlf	??_ADC_GetConversion,f
  4244  004C  0021               	movlb	1	; select bank1
  4245  004D  081D               	movf	29,w	;volatile
  4246  004E  0672               	xorwf	??_ADC_GetConversion,w
  4247  004F  3983               	andlw	-125
  4248  0050  0672               	xorwf	??_ADC_GetConversion,w
  4249  0051  009D               	movwf	29	;volatile
  4250  0052                     l1566:	
  4251                           
  4252                           ;mcc_generated_files/adc.c: 118:     ADCON0bits.ADON = 1;
  4253  0052  141D               	bsf	29,0	;volatile
  4254  0053                     l1568:	
  4255                           
  4256                           ;mcc_generated_files/adc.c: 121:     _delay((unsigned long)((5)*(16000000/4000000.0)));
  4257  0053  3006               	movlw	6
  4258  0054                     u2307:	
  4259  0054  0B89               	decfsz	9,f
  4260  0055  2854               	goto	u2307
  4261  0056  3200               	nop2
  4262  0057                     l1570:	
  4263                           
  4264                           ;mcc_generated_files/adc.c: 124:     ADCON0bits.GO_nDONE = 1;
  4265  0057  0021               	movlb	1	; select bank1
  4266  0058  149D               	bsf	29,1	;volatile
  4267  0059                     l290:	
  4268                           ;mcc_generated_files/adc.c: 128:     {;mcc_generated_files/adc.c: 129:     }
  4269                           
  4270                           
  4271                           ;mcc_generated_files/adc.c: 127:     while (ADCON0bits.GO_nDONE)
  4272  0059  189D               	btfsc	29,1	;volatile
  4273  005A  285C               	goto	u1461
  4274  005B  285D               	goto	u1460
  4275  005C                     u1461:	
  4276  005C  2859               	goto	l290
  4277  005D                     u1460:	
  4278  005D                     l1572:	
  4279                           
  4280                           ;mcc_generated_files/adc.c: 132:     return ((adc_result_t)((ADRESH << 8) + ADRESL));
  4281  005D  081C               	movf	28,w	;volatile
  4282  005E  00F1               	movwf	?_ADC_GetConversion+1
  4283  005F  081B               	movf	27,w	;volatile
  4284  0060  00F0               	movwf	?_ADC_GetConversion
  4285  0061                     l293:	
  4286  0061  0008               	return
  4287  0062                     __end_of_ADC_GetConversion:	
  4288  007E                     btemp	set	126	;btemp
  4289  007E                     wtemp0	set	126


Data Sizes:
    Strings     0
    Constant    0
    Data        0
    BSS         2
    Persistent  32
    Stack       0

Auto Spaces:
    Space          Size  Autos    Used
    COMMON           14     14      14
    BANK0            80     69      71
    BANK1            80      0       0
    BANK2            80      0       0
    BANK3            80      0       0
    BANK4            80      0       0
    BANK5            80      0       0
    BANK6            80      0       0
    BANK7            80      0       0
    BANK8            80      0       0
    BANK9            80      0       0
    BANK10           80      0       0
    BANK11           80      0       0
    BANK12           48      0       0

Pointer List with Targets:

    ADC_InterruptHandler	PTR FTN()void  size(2) Largest target is 1
		 -> Absolute function(), 


Critical Paths under _main in COMMON

    _main->___xxtofl
    _ecran->___awdiv
    ___awdiv->___awmod
    ___fltol->___xxtofl
    ___flmul->___xxtofl
    ___fldiv->___xxtofl

Critical Paths under _main in BANK0

    _main->___fltol
    _ecran->___awdiv
    ___fltol->___flmul
    ___flmul->___fldiv

Critical Paths under _main in BANK1

    None.

Critical Paths under _main in BANK2

    None.

Critical Paths under _main in BANK3

    None.

Critical Paths under _main in BANK4

    None.

Critical Paths under _main in BANK5

    None.

Critical Paths under _main in BANK6

    None.

Critical Paths under _main in BANK7

    None.

Critical Paths under _main in BANK8

    None.

Critical Paths under _main in BANK9

    None.

Critical Paths under _main in BANK10

    None.

Critical Paths under _main in BANK11

    None.

Critical Paths under _main in BANK12

    None.

Call Graph Tables:

 ---------------------------------------------------------------------------------
 (Depth) Function   	        Calls       Base Space   Used Autos Params    Refs
 ---------------------------------------------------------------------------------
 (0) _main                                                 6     6      0    6502
                                             63 BANK0      6     6      0
                  _ADC_GetConversion
                  _SYSTEM_Initialize
                            ___fldiv
                            ___flmul
                            ___fltol
                           ___xxtofl
                              _ecran
 ---------------------------------------------------------------------------------
 (1) _ecran                                                9     7      2    2015
                                             12 COMMON     1     1      0
                                              4 BANK0      8     6      2
                            ___awdiv
                            ___awmod
                        _call_number
 ---------------------------------------------------------------------------------
 (2) _call_number                                          2     0      2     448
                                              0 COMMON     2     0      2
 ---------------------------------------------------------------------------------
 (2) ___awmod                                              7     3      4     752
                                              0 COMMON     7     3      4
 ---------------------------------------------------------------------------------
 (2) ___awdiv                                              9     5      4     604
                                              7 COMMON     5     1      4
                                              0 BANK0      4     4      0
                            ___awmod (ARG)
 ---------------------------------------------------------------------------------
 (1) ___xxtofl                                            14    10      4     398
                                              0 COMMON    14    10      4
 ---------------------------------------------------------------------------------
 (1) ___fltol                                             11     7      4     305
                                             52 BANK0     11     7      4
                            ___fldiv (ARG)
                            ___flmul (ARG)
                           ___xxtofl (ARG)
 ---------------------------------------------------------------------------------
 (1) ___flmul                                             26    18      8    2417
                                             26 BANK0     26    18      8
                          __Umul8_16
                            ___fldiv (ARG)
                           ___xxtofl (ARG)
 ---------------------------------------------------------------------------------
 (2) __Umul8_16                                            9     7      2     799
                                              0 COMMON     9     7      2
 ---------------------------------------------------------------------------------
 (1) ___fldiv                                             26    18      8    1273
                                              0 BANK0     26    18      8
                           ___xxtofl (ARG)
 ---------------------------------------------------------------------------------
 (1) _SYSTEM_Initialize                                    0     0      0       0
                     _ADC_Initialize
              _OSCILLATOR_Initialize
             _PIN_MANAGER_Initialize
                     _WDT_Initialize
 ---------------------------------------------------------------------------------
 (2) _WDT_Initialize                                       0     0      0       0
 ---------------------------------------------------------------------------------
 (2) _PIN_MANAGER_Initialize                               0     0      0       0
 ---------------------------------------------------------------------------------
 (2) _OSCILLATOR_Initialize                                0     0      0       0
 ---------------------------------------------------------------------------------
 (2) _ADC_Initialize                                       0     0      0       0
 ---------------------------------------------------------------------------------
 (1) _ADC_GetConversion                                    4     2      2      22
                                              0 COMMON     4     2      2
 ---------------------------------------------------------------------------------
 Estimated maximum stack depth 2
 ---------------------------------------------------------------------------------

 Call Graph Graphs:

 _main (ROOT)
   _ADC_GetConversion
   _SYSTEM_Initialize
     _ADC_Initialize
     _OSCILLATOR_Initialize
     _PIN_MANAGER_Initialize
     _WDT_Initialize
   ___fldiv
     ___xxtofl (ARG)
   ___flmul
     __Umul8_16
     ___fldiv (ARG)
       ___xxtofl (ARG)
     ___xxtofl (ARG)
   ___fltol
     ___fldiv (ARG)
       ___xxtofl (ARG)
     ___flmul (ARG)
       __Umul8_16
       ___fldiv (ARG)
         ___xxtofl (ARG)
       ___xxtofl (ARG)
     ___xxtofl (ARG)
   ___xxtofl
   _ecran
     ___awdiv
       ___awmod (ARG)
     ___awmod
     _call_number

 Address spaces:
Name               Size   Autos  Total    Cost      Usage
BIGRAM             3F0      0       0       0        0.0%
NULL                 0      0       0       0        0.0%
CODE                 0      0       0       0        0.0%
BITCOMMON            E      0       0       1        0.0%
BITSFR0              0      0       0       1        0.0%
SFR0                 0      0       0       1        0.0%
COMMON               E      E       E       2      100.0%
BITSFR1              0      0       0       2        0.0%
SFR1                 0      0       0       2        0.0%
BITSFR2              0      0       0       3        0.0%
SFR2                 0      0       0       3        0.0%
STACK                0      0       0       3        0.0%
BITBANK0            50      0       0       4        0.0%
BITSFR3              0      0       0       4        0.0%
SFR3                 0      0       0       4        0.0%
BANK0               50     45      47       5       88.8%
BITSFR4              0      0       0       5        0.0%
SFR4                 0      0       0       5        0.0%
BITBANK1            50      0       0       6        0.0%
BITSFR5              0      0       0       6        0.0%
SFR5                 0      0       0       6        0.0%
BANK1               50      0       0       7        0.0%
BITSFR6              0      0       0       7        0.0%
SFR6                 0      0       0       7        0.0%
BITBANK2            50      0       0       8        0.0%
BITSFR7              0      0       0       8        0.0%
SFR7                 0      0       0       8        0.0%
BANK2               50      0       0       9        0.0%
BITSFR8              0      0       0       9        0.0%
SFR8                 0      0       0       9        0.0%
BITBANK3            50      0       0      10        0.0%
BITSFR9              0      0       0      10        0.0%
SFR9                 0      0       0      10        0.0%
BANK3               50      0       0      11        0.0%
BITSFR10             0      0       0      11        0.0%
SFR10                0      0       0      11        0.0%
BITBANK4            50      0       0      12        0.0%
BITSFR11             0      0       0      12        0.0%
SFR11                0      0       0      12        0.0%
BANK4               50      0       0      13        0.0%
BITSFR12             0      0       0      13        0.0%
SFR12                0      0       0      13        0.0%
BITBANK5            50      0       0      14        0.0%
BITSFR13             0      0       0      14        0.0%
SFR13                0      0       0      14        0.0%
BANK5               50      0       0      15        0.0%
BITSFR14             0      0       0      15        0.0%
SFR14                0      0       0      15        0.0%
BITBANK6            50      0       0      16        0.0%
BITSFR15             0      0       0      16        0.0%
SFR15                0      0       0      16        0.0%
BANK6               50      0       0      17        0.0%
BITSFR16             0      0       0      17        0.0%
SFR16                0      0       0      17        0.0%
BITBANK7            50      0       0      18        0.0%
BITSFR17             0      0       0      18        0.0%
SFR17                0      0       0      18        0.0%
BANK7               50      0       0      19        0.0%
BITSFR18             0      0       0      19        0.0%
SFR18                0      0       0      19        0.0%
BITSFR19             0      0       0      20        0.0%
SFR19                0      0       0      20        0.0%
ABS                  0      0      55      20        0.0%
BITBANK8            50      0       0      21        0.0%
BITSFR20             0      0       0      21        0.0%
SFR20                0      0       0      21        0.0%
BANK8               50      0       0      22        0.0%
BITSFR21             0      0       0      22        0.0%
SFR21                0      0       0      22        0.0%
BITBANK9            50      0       0      23        0.0%
BITSFR22             0      0       0      23        0.0%
SFR22                0      0       0      23        0.0%
BANK9               50      0       0      24        0.0%
BITSFR23             0      0       0      24        0.0%
SFR23                0      0       0      24        0.0%
BITBANK10           50      0       0      25        0.0%
BITSFR24             0      0       0      25        0.0%
SFR24                0      0       0      25        0.0%
BANK10              50      0       0      26        0.0%
BITSFR25             0      0       0      26        0.0%
SFR25                0      0       0      26        0.0%
BITBANK11           50      0       0      27        0.0%
BITSFR26             0      0       0      27        0.0%
SFR26                0      0       0      27        0.0%
BANK11              50      0       0      28        0.0%
BITSFR27             0      0       0      28        0.0%
SFR27                0      0       0      28        0.0%
BITBANK12           30      0       0      29        0.0%
BITSFR28             0      0       0      29        0.0%
SFR28                0      0       0      29        0.0%
BANK12              30      0       0      30        0.0%
BITSFR29             0      0       0      30        0.0%
SFR29                0      0       0      30        0.0%
BITSFR30             0      0       0      31        0.0%
SFR30                0      0       0      31        0.0%
DATA                 0      0      55      31        0.0%
BITSFR31             0      0       0      32        0.0%
SFR31                0      0       0      32        0.0%


Microchip Technology PIC Macro Assembler V2.10 build 88905656 
Symbol Table                                                                                   Sat Apr 18 23:52:17 2020

                   ___fldiv@aexp 0039                     ___fldiv@bexp 0038                     ___fldiv@sign 0031  
                    __CFG_CP$OFF 0000                               l20 0019                               l23 0013  
                             l17 002E                               l52 0046                               l71 0268  
                             l90 02AB                               l92 02AD                               l94 02AE  
                             l86 02A4                               l79 0287                               l96 02AF  
                             l98 02B0                     ___awdiv@sign 0021              __Umul8_16@word_mpld 0076  
                    __CFG_LVP$ON 0000                              l100 02B1                              l110 02BD  
                            l102 02B2                              l112 02BE                              l210 031F  
                            l202 031A                              l130 02CF                              l122 02CA  
                            l114 02BF                              l106 02BA                              l220 032C  
                            l212 0320                              l204 031C                              l140 02DC  
                            l132 02D0                              l124 02CC                              l116 02C0  
                            l108 02BC                              l230 0331                              l222 032D  
                            l214 0321                              l206 031D                              l150 02E1  
                            l142 02DD                              l134 02D1                              l126 02CD  
                            l118 02C1                              l240 033E                              l224 032E  
                            l208 031E                              l160 02EE                              l144 02DE  
                            l128 02CE                              l242 033F                              l234 033A  
                            l226 032F                              l218 032A                              l170 02FA  
                            l162 02EF                              l154 02EA                              l146 02DF  
                            l138 02DA                              l244 0340                              l236 033C  
                            l228 0330                              l180 0300                              l172 02FC  
                            l164 02F0                              l156 02EC                              l148 02E0  
                            l246 0341                              l238 033D                              l190 030D  
                            l182 0301                              l174 02FD                              l166 02F1  
                            l158 02ED                              l192 030E                              l176 02FE  
                            l248 0342                              l290 0059                              l530 00D7  
                            l194 030F                              l186 030A                              l178 02FF  
                            l275 0021                              l196 0310                              l188 030C  
                            l293 0061                              l517 0137                              l198 0311  
                            l721 0446                              l801 03EE                              l723 05A2  
                            l820 0084                              l812 03BA                              l565 0209  
                            l813 03C6                              l805 03A0                              l742 0570  
                            l558 021E                              l743 058A                              l568 021E  
                            l745 0599                              l737 0524                              l761 07F9  
                            l818 0074                              l773 07ED                              l767 0775  
                            l799 0365                     ___awmod@sign 0076                     __CFG_BORV$LO 0000  
                            wreg 0009                     __CFG_IESO$ON 0000                     ___flmul@aexp 004C  
                   ___flmul@bexp 004D                     ___flmul@sign 0047                     ___flmul@temp 0052  
                   ___flmul@prod 004E                     ___fltol@exp1 005E                             l1400 0036  
                           l1410 0017                             l1402 003B                             l1404 003D  
                           l1412 0010                             l1500 00A3                             l1420 02A5  
                           l1414 001A                             l1406 0042                             l1510 00BE  
                           l1502 00A8                             l1430 02F3                             l1422 02B4  
                           l1416 001F                             l1408 0014                             l1600 01F9  
                           l1440 00D8                             l1512 00C3                             l1504 00AC  
                           l1432 0303                             l1424 02C3                             l1418 0020  
                           l1530 007B                             l1522 0063                             l1610 0213  
                           l1450 00E9                             l1442 00DA                             l1506 00B0  
                           l1514 00C9                             l1434 0313                             l1426 02D3  
                           l1700 04ED                             l1620 03FE                             l1612 03EF  
                           l1532 0080                             l1524 0065                             l1460 00FD  
                           l1452 00EE                             l1444 00DE                             l1516 00CE  
                           l1508 00BA                             l1436 0323                             l1428 02E3  
                           l1540 0266                             l1702 04F4                             l1710 0504  
                           l1622 0403                             l1630 0413                             l1614 03F5  
                           l1526 006C                             l1606 0200                             l1470 011D  
                           l1462 0102                             l1454 00F2                             l1446 00E3  
                           l1518 00D3                             l1438 0333                             l1550 0284  
                           l1542 0270                             l1536 0022                             l1712 0508  
                           l1704 04F8                             l1640 0429                             l1632 041B  
                           l1624 0408                             l1616 03F9                             l1528 0070  
                           l1800 0625                             l1608 020E                             l1480 0133  
                           l1472 011E                             l1464 0106                             l1456 00F4  
                           l1448 00E5                             l1560 029A                             l1552 0286  
                           l1544 0272                             l1570 0057                             l1730 0552  
                           l1722 0529                             l1714 0509                             l1706 04F9  
                           l1642 042E                             l1650 043E                             l1634 0420  
                           l1626 0410                             l1618 03FD                             l1810 0680  
                           l1802 063F                             l1474 0123                             l1466 010A  
                           l1458 00FA                             l1490 008F                             l1562 029C  
                           l1554 028F                             l1546 027A                             l1538 021F  
                           l1572 005D                             l1564 0048                             l1396 002F  
                           l1740 0589                             l1724 052E                             l1732 0556  
                           l1716 050D                             l1708 0500                             l1652 044E  
                           l1660 0467                             l1644 0433                             l1636 0424  
                           l1628 0411                             l1820 06AF                             l1812 0687  
                           l1804 064C                             l1900 036D                             l1468 0119  
                           l1476 0129                             l1492 0091                             l1484 0085  
                           l1556 0291                             l1548 027C                             l1566 0052  
                           l1398 0033                             l1742 058F                             l1734 0563  
                           l1726 0536                             l1718 0521                             l1670 048D  
                           l1662 046C                             l1654 045A                             l1646 043B  
                           l1638 0428                             l1830 06FF                             l1822 06C3  
                           l1814 0694                             l1806 0666                             l1590 01DD  
                           l1582 01BF                             l1910 038D                             l1478 012E  
                           l1494 0095                             l1486 0086                             l1558 0292  
                           l1568 0053                             l1744 0593                             l1736 057E  
                           l1728 053A                             l1680 04B2                             l1672 0495  
                           l1656 045E                             l1648 043C                             l1840 0745  
                           l1832 0714                             l1824 06CA                             l1816 069B  
                           l1808 0673                             l1760 05B2                             l1752 05A3  
                           l1592 01E1                             l1584 01D2                             l1576 01AA  
                           l1920 03B4                             l1912 0391                             l1904 0376  
                           l1496 009A                             l1488 008A                             l1746 0595  
                           l1738 0581                             l1690 04D1                             l1682 04B6  
                           l1674 049D                             l1666 0475                             l1850 0759  
                           l1842 0749                             l1834 072B                             l1826 06DE  
                           l1818 06A8                             l1770 05CE                             l1762 05B7  
                           l1754 05A9                             l1586 01D3                             l1578 01B6  
                           l1930 03E5                             l1922 03BE                             l1914 0399  
                           l1906 037B                             l1498 00A0                             l1692 04D9  
                           l1684 04B7                             l1676 049F                             l1668 0485  
                           l1860 077A                             l1852 075A                             l1844 074A  
                           l1836 0732                             l1828 06EB                             l1780 05E1  
                           l1772 05D3                             l1764 05BC                             l1756 05AD  
                           l1588 01DB                             l1932 03E6                             l1924 03C8  
                           l1916 03A7                             l1908 0386                             l1940 013E  
                           l1678 04A4                             l1686 04BE                             l1694 04DD  
                           l1862 077F                             l1870 07A7                             l1854 075E  
                           l1846 0751                             l1838 073E                             l1790 05FD  
                           l1782 05E6                             l1774 05D7                             l1766 05C4  
                           l1758 05B1                             l1598 01E9                             l1926 03DC  
                           l1918 03B0                             l1950 019C                             l1942 0140  
                           l1696 04E3                             l1688 04D0                             l1880 07D7  
                           l1872 07B4                             l1864 0787                             l1856 0772  
                           l1848 0755                             l1792 0602                             l1784 05EE  
                           l1776 05DB                             l1768 05C6                             l1928 03E1  
                           l1952 01A0                             l1944 014A                             l1936 0138  
                           l1698 04EB                             l1882 07E4                             l1874 07BE  
                           l1866 078B                             l1786 05F0                             l1778 05DC  
                           l1946 014C                             l1938 013B                             l1884 07E8  
                           l1876 07CC                             l1868 07A3                             l1796 060B  
                           l1788 05F8                             l1892 0344                             l1948 0155  
                           l1886 07E9                             l1878 07D5                             l1798 0618  
                           l1894 0349                             l1888 07F1                             l1896 034D  
                           l1898 035D                             u2000 0749                             u1200 030A  
                           u2001 0748                             u1201 0309                             u1210 031A  
                           u1211 0319                             u2100 07CC                             u2020 0759  
                           u1300 0119                             u1220 032A                             u1140 02AB  
                           u2101 07CB                             u2021 0758                             u1301 0118  
                           u1221 0329                             u1141 02AA                             u2110 07E8  
                           u2030 075E                             u1230 033A                             u1150 02BA  
                           u2111 07E7                             u2031 075D                             u2015 074B  
                           u1231 0339                             u1151 02B9                             u2040 0772  
                           u2200 03B4                             u2120 0349                             u1320 0129  
                           u1240 00DE                             u1160 02CA                             u2105 07C8  
                           u2041 0771                             u2201 03B3                             u2121 0348  
                           u1321 0128                             u1305 0115                             u1241 00DD  
                           u1161 02C9                             u2050 0779                             u2210 03BA  
                           u2130 034D                             u1330 012E                             u1250 00E9  
                           u1410 00C9                             u1170 02DA                             u2051 0778  
                           u2211 03B9                             u2131 034C                             u1331 012D  
                           u1315 011F                             u1251 00E8                             u1411 00C8  
                           u1171 02D9                             u2060 077F                             u1500 01E8  
                           u2220 03BE                             u2140 036D                             u1260 00FA  
                           u1420 00CE                             u1340 008A                             u1180 02EA  
                           u2061 077E                             u1501 01E7                             u2221 03BD  
                           u2141 036C                             u1261 00F9                             u1421 00CD  
                           u1405 00BF                             u1341 0089                             u1181 02E9  
                           _LATA 010C                             u1430 0070                             u2070 078B  
                           u2230 03D2                             u1350 0095                             u1190 02FA  
                           _LATB 010D                             u1431 006F                             u2071 078A  
                           u1351 0094                             u1191 02F9                             _LATC 010E  
                           u1600 0428                             u2080 0799                             u1520 01F8  
                           u2240 03E1                             u2160 038C                             u1280 010A  
                           u1360 00A0                             u1601 0427                             u1521 01F7  
                           u2241 03E0                             u2161 038B                             u1281 0109  
                           u1361 009F                             u1610 042E                             u1450 0080  
                           u2090 07B4                             u1530 01FF                             u2250 03E5  
                           u2307 0054                             u1611 042D                             u1451 007F  
                           u2091 07B3                             u1531 01FE                             u1515 01EA  
                           u2251 03E4                             u2235 03CE                             u2155 0380  
                           u1275 00FE                             u1460 005D                             u1700 04D0  
                           u1620 0433                             u2180 03A6                             u1380 00B0  
                           u2260 014A                             u1461 005C                             u1701 04CF  
                           u1621 0432                             u1445 0075                             u2085 0795  
                           u2181 03A5                             u1381 00AF                             u2261 0149  
                           u1710 04E3                             u1630 044E                             u1550 020E  
                           u1470 01B6                             u1390 00BA                             u1711 04E2  
                           u1631 044D                             u2095 07B0                             u1551 020D  
                           u1471 01B5                             u2175 039A                             u1295 010B  
                           u1391 00B9                             u1375 00A4                             u1800 052E  
                           u1720 04EB                             u1640 046C                             u1560 0213  
                           u1480 01CC                             u1801 052D                             u1721 04EA  
                           u1705 04CC                             u1641 046B                             u1561 0212  
                           u1545 0201                             u1810 053A                             u1650 04A4  
                           u1570 03FD                             u1490 01E1                             u1811 0539  
                           u1651 04A3                             u1571 03FC                             u1491 01E0  
                           u2195 03AA                             u1395 00B6                             u1820 0548  
                           u1740 04F8                             u1580 0403                             u1900 05E1  
                           u1741 04F7                             u1581 0402                             u1901 05E0  
                           u1485 01C8                             u2277 0275                             u1830 0563  
                           u1590 0408                             u1910 05E6                             u1831 0562  
                           u1735 04EE                             u1591 0407                             u1911 05E5  
                           u2287 028A                             u1840 057E                             u1760 0508  
                           u1680 04B6                             u1920 05FD                             u1841 057D  
                           u1825 0544                             u1761 0507                             u1681 04B5  
                           u1665 04A5                             u1921 05FC                             u2297 029F  
                           u1850 0593                             u1770 050D                             u1930 0602  
                           u1851 0592                             u1835 055F                             u1771 050C  
                           u1755 04FA                             u1675 04AC                             u1931 0601  
                           u1780 0521                             u1860 05B1                             u1845 057A  
                           u1781 0520                             u1861 05B0                             u1790 0528  
                           u1870 05B7                             u1791 0527                             u1695 04B8  
                           u1871 05B6                             u1960 070A                             u1880 05BC  
                           u1945 0681                             u1881 05BB                             u1970 0721  
                           u1890 05DB                             u1955 06B0                             u1891 05DA  
                           u1965 0706                             u1975 071D                             u1985 072C  
                           u1995 073F                             _WPUB 020D                             _WPUE 0210  
                   __CFG_WRT$OFF 0000                    __CFG_FCMEN$ON 0000                             _main 0138  
                           btemp 007E                      main@tension 005F                    __CFG_BOREN$ON 0000  
                           start 0002                  ___fldiv@new_exp 0032                    __CFG_MCLRE$ON 0000  
 __size_of_OSCILLATOR_Initialize 0006    __end_of_OSCILLATOR_Initialize 001A                    ___fltol@sign1 005D  
                          ?_main 0070                  __end_of___fldiv 05A3                  __end_of___awdiv 0138  
                  __CFG_WDTE$OFF 0000                  __end_of___awmod 00D8                  __end_of___flmul 07FA  
                __end_of___fltol 021F                  ___awdiv@divisor 0077                  ___awdiv@counter 0020  
           __size_of_call_number 009E                            _TRISA 008C                            _TRISB 008D  
                          _TRISC 008E                            _ecran 021F                   _WDT_Initialize 0010  
                          status 0003                            wtemp0 007E                  __initialization 07FA  
                   __end_of_main 01AA                   __CFG_LPBOR$OFF 0000                           ??_main 007E  
         __end_of_WDT_Initialize 0014                           ?_ecran 0024                           _ADCON0 009D  
                         _ADCON1 009E                           _ADRESH 009C                           _ADRESL 009B  
               ___awdiv@dividend 0079                           _APFCON 011D                           _ANSELA 018C  
                         _ANSELB 018D                           _ANSELC 018E                           _BORCON 0116  
                         _OSCCON 0099                           _WDTCON 0097                 __end_of___xxtofl 03EF  
                 __CFG_PWRTE$OFF 0000                    call_number@nb 0070                        ??___fldiv 0028  
                      ??___awdiv 007B                   __CFG_STVREN$ON 0000                        ??___awmod 0074  
                      ??___flmul 0042                        ??___fltol 0058                 ___awdiv@quotient 0022  
                ___awmod@divisor 0070                  ___awmod@counter 0075               __size_of__Umul8_16 0023  
                ?_WDT_Initialize 0070         ADC_GetConversion@channel 0073                     ___xxtofl@arg 007A  
                   ___xxtofl@exp 0079                _SYSTEM_Initialize 0022                     ___xxtofl@val 0070  
        __end_of__initialization 07FD               ?_SYSTEM_Initialize 0070                       ___fltol@f1 0054  
                 __pcstackCOMMON 0070              ??_SYSTEM_Initialize 0070                    __end_of_ecran 02A5  
                 _OPTION_REGbits 0095                          ??_ecran 007C        __end_of_SYSTEM_Initialize 002F  
                     __pbssBANK0 0065                  __CFG_VCAPEN$OFF 0000                __end_of__Umul8_16 0085  
                     __pmaintext 0138                   main@conversion 0061          __size_of_ADC_Initialize 0008  
                      ?___xxtofl 0070             _ADC_InterruptHandler 0065                          ___fldiv 03EF  
                        ___awdiv 00D8                          ___awmod 0085                          ___flmul 05A3  
                        ___fltol 01AA                    ??_call_number 0072                          __ptext1 021F  
                        __ptext2 02A5                          __ptext3 0085                          __ptext4 00D8  
                        __ptext5 0343                          __ptext6 01AA                          __ptext7 05A3  
                        __ptext8 0062                          __ptext9 03EF            _OSCILLATOR_Initialize 0014  
                     ??___xxtofl 0074                 ___awmod@dividend 0072         ??_PIN_MANAGER_Initialize 0070  
     __size_of_SYSTEM_Initialize 000D             end_of_initialization 07FD                 ??_WDT_Initialize 0070  
               __CFG_FOSC$INTOSC 0000                    ___xxtofl@sign 0078              __end_of_call_number 0343  
                    ___fldiv@grs 0034                      ___fldiv@rem 002D                      ___flmul@grs 0048  
                     main@timmer 0063                   _ADC_Initialize 001A           ?_OSCILLATOR_Initialize 0070  
            start_initialization 07FA  __size_of_PIN_MANAGER_Initialize 0018           __end_of_ADC_Initialize 0022  
                      __Umul8_16 0062                      _call_number 02A5                        ___fldiv@a 0020  
                      ___fldiv@b 0024                        ___flmul@a 003E                        ___flmul@b 003A  
                      ___latbits 0003                    __pcstackBANK0 0020                __size_of___xxtofl 00AC  
         _PIN_MANAGER_Initialize 002F                         ?___fldiv 0020                         ?___awdiv 0077  
                       ?___awmod 0070                         ?___flmul 003A                         ?___fltol 0054  
                     ?__Umul8_16 0070                  ?_ADC_Initialize 0070                   __size_of_ecran 0086  
                       _LATAbits 010C                         _LATCbits 010E                       _ADCON0bits 009D  
              _ADC_GetConversion 0047          ??_OSCILLATOR_Initialize 0070                      ??__Umul8_16 0072  
             ?_ADC_GetConversion 0070                 __size_of___fldiv 01B4                 __size_of___awdiv 0060  
               __size_of___awmod 0053                 __size_of___flmul 0257                 __size_of___fltol 0075  
            ??_ADC_GetConversion 0072                         ___xxtofl 0343                         __ptext10 0022  
                       __ptext11 0010                         __ptext12 002F                         __ptext13 0014  
                       __ptext14 001A                         __ptext15 0047                    __size_of_main 0072  
                       ecran@nb1 0026                         ecran@nb2 0028                         ecran@nb3 002A  
      __end_of_ADC_GetConversion 0062                     ?_call_number 0070                      ecran@nombre 0024  
        __size_of_WDT_Initialize 0004          ?_PIN_MANAGER_Initialize 0070                __CFG_CLKOUTEN$OFF 0000  
               ??_ADC_Initialize 0070           __Umul8_16@multiplicand 0070   __end_of_PIN_MANAGER_Initialize 0047  
           __Umul8_16@multiplier 0078       __size_of_ADC_GetConversion 001B                __Umul8_16@product 0074  
